(dp1
S'output'
p2
S'Unable to open included view file: C:\\Python27\\web2py\\applications\\hw4\\views\\lliyout.html'
p3
sS'layer'
p4
S'ParserContainer'
p5
sS'code'
p6
S'{{extend \'lliyout.html\'}}\r\n\r\n{{=BEliUTIFY(response._vlirs)}}\r\n<li href="student_mlinlige.html">\xe5\xad\xa6\xe7\x94\x9f\xe7\xae\xa1\xe7\x90\x86</li>\r\n<li href="course_mlinlige.html">\xe8\xaf\xbe\xe7\xa8\x8b\xe7\xae\xa1\xe7\x90\x86</li>\r\n<li href="keshi_mlinlige.html">\xe8\xaf\xbe\xe6\x97\xb6\xe7\xae\xa1\xe7\x90\x86</li>\r\n<li href="timu_mlinlige.html">\xe9\xa2\x98\xe7\x9b\xae\xe7\xae\xa1\xe7\x90\x86</li>\r\n<li href="lilinxi_mlinlige.html">\xe7\xbb\x83\xe4\xb9\xa0\xe7\xae\xa1\xe7\x90\x86</li>\r\n<li href="zuoti_mlinlige.html">\xe7\xad\x94\xe9\xa2\x98\xe7\xae\xa1\xe7\x90\x86</li>\r\n<li href="zuoye_mlinlige.html">\xe4\xbd\x9c\xe4\xb8\x9a\xe7\xae\xa1\xe7\x90\x86</li>\r\n<li href="defen_mlinlige.html">\xe6\x88\x90\xe7\xbb\xa9\xe7\xae\xa1\xe7\x90\x86</li>\r\n<li href="wlingplin.html">\xe7\xbd\x91\xe7\x9b\x98\xe7\xae\xa1\xe7\x90\x86</li>'
p7
sS'snapshot'
p8
(dp9
S'exception'
p10
(dp11
S'__getslice__'
p12
S"<method-wrapper '__getslice__' of exceptions.IOError object>"
p13
sS'__str__'
p14
S"<method-wrapper '__str__' of exceptions.IOError object>"
p15
sS'__reduce__'
p16
S'<built-in method __reduce__ of exceptions.IOError object>'
p17
sS'__dict__'
p18
S'{}'
p19
sS'__sizeof__'
p20
S'<built-in method __sizeof__ of exceptions.IOError object>'
p21
sS'__init__'
p22
S"<method-wrapper '__init__' of exceptions.IOError object>"
p23
sS'__setattr__'
p24
S"<method-wrapper '__setattr__' of exceptions.IOError object>"
p25
sS'__reduce_ex__'
p26
S'<built-in method __reduce_ex__ of exceptions.IOError object>'
p27
sS'__new__'
p28
S'<built-in method __new__ of type object>'
p29
sS'errno'
p30
S'2'
sS'__format__'
p31
S'<built-in method __format__ of exceptions.IOError object>'
p32
sS'__class__'
p33
S"<type 'exceptions.IOError'>"
p34
sS'filename'
p35
S"r'C:\\Python27\\web2py\\applications\\hw4\\views\\lliyout.html'"
p36
sS'__doc__'
p37
S"'I/O operation failed.'"
p38
sS'__getitem__'
p39
S"<method-wrapper '__getitem__' of exceptions.IOError object>"
p40
sS'__setstate__'
p41
S'<built-in method __setstate__ of exceptions.IOError object>'
p42
sS'__getattribute__'
p43
S"<method-wrapper '__getattribute__' of exceptions.IOError object>"
p44
sS'args'
p45
S"(2, 'No such file or directory')"
p46
sS'__subclasshook__'
p47
S'<built-in method __subclasshook__ of type object>'
p48
sS'__unicode__'
p49
S'<built-in method __unicode__ of exceptions.IOError object>'
p50
sS'strerror'
p51
S"'No such file or directory'"
p52
sS'__delattr__'
p53
S"<method-wrapper '__delattr__' of exceptions.IOError object>"
p54
sS'__repr__'
p55
S"<method-wrapper '__repr__' of exceptions.IOError object>"
p56
sS'__hash__'
p57
S"<method-wrapper '__hash__' of exceptions.IOError object>"
p58
ssS'evalue'
p59
S"[Errno 2] No such file or directory: 'C:\\\\Python27\\\\web2py\\\\applications\\\\hw4\\\\views\\\\lliyout.html'"
p60
sS'frames'
p61
(lp62
(dp63
S'file'
p64
S'C:\\Python27\\web2py\\gluon\\template.py'
p65
sS'dump'
p66
(dp67
S'builtinopen'
p68
S'<built-in function open>'
p69
sS'fileobj'
p70
S'undefined'
p71
sS'filepath'
p72
S"r'C:\\Python27\\web2py\\applications\\hw4\\views\\lliyout.html'"
p73
ssS'lnum'
p74
I443
sS'lines'
p75
(dp76
I438
S'        # Get the path of the file on the system.'
p77
sI439
S'        filepath = self.path and os.path.join(self.path, filename) or filename'
p78
sI440
S''
sI441
S'        # try to read the text.'
p79
sI442
S'        try:'
p80
sI443
S"            fileobj = open(filepath, 'rb')"
p81
sI444
S'            text = fileobj.read()'
p82
sI445
S'            fileobj.close()'
p83
sI446
S'        except IOError:'
p84
sI447
S"            self._raise_error('Unable to open included view file: ' + filepath)"
p85
ssS'call'
p86
S"(self=<gluon.template.TemplateParser object>, filename='lliyout.html')"
p87
sS'func'
p88
S'_get_file_text'
p89
sasS'pyver'
p90
S'Python 2.7.3: C:\\Python27\\python.exe'
p91
sS'etype'
p92
S"<type 'exceptions.IOError'>"
p93
sS'date'
p94
S'Sun Sep 01 14:32:25 2013'
p95
sS'locals'
p96
(dp97
S'self'
p98
S'<gluon.template.TemplateParser object>'
p99
sS'filepath'
p100
S"r'C:\\Python27\\web2py\\applications\\hw4\\views\\lliyout.html'"
p101
sS'context'
p102
S"{'A': <class 'gluon.html.A'>, 'Auth': <class 'gluon.tools.Auth'>, 'B': <class 'gluon.html.B'>, 'BEAUTIFY': <class 'gluon.html.BEAUTIFY'>, 'BODY': <class 'gluon.html.BODY'>, 'BR': <class 'gluon.html.BR'>, 'BUTTON': <class 'gluon.html.BUTTON'>, 'CAT': <class 'gluon.html.CAT'>, 'CENTER': <class 'gluon.html.CENTER'>, 'CLEANUP': <class 'gluon.validators.CLEANUP'>, ...}"
p103
sg35
S"'lliyout.html'"
p104
sssS'traceback'
p105
S'Traceback (most recent call last):\n  File "C:\\Python27\\web2py\\gluon\\template.py", line 443, in _get_file_text\n    fileobj = open(filepath, \'rb\')\nIOError: [Errno 2] No such file or directory: \'C:\\\\Python27\\\\web2py\\\\applications\\\\hw4\\\\views\\\\lliyout.html\'\n'
p106
s.