(dp1
S'output'
p2
S"<type 'exceptions.NameError'> global name 'vals' is not defined"
p3
sS'layer'
p4
S'C:\\Python27\\web2py\\applications\\hw4\\controllers/teacher.py'
p5
sS'code'
p6
S'# coding: utf8\n# \xe5\xb0\x9d\xe8\xaf\x95\n@auth.requires(request.client==\'127.0.0.1\' or auth.has_membership(role=\'teacher\') , requires_login=False)\ndef index(): return dict()\n\n@auth.requires(request.client==\'127.0.0.1\' or auth.has_membership(role=\'teacher\') , requires_login=False)\ndef student_manage():\n    form = SQLFORM.grid(db.auth_user)\n    return dict(form=form)\n\n@auth.requires(request.client==\'127.0.0.1\' or auth.has_membership(role=\'teacher\') , requires_login=False)\n\ndef course_manage():\n    form = SQLFORM.smartgrid(db.course)\n    return dict(form=form)\n\n@auth.requires(request.client==\'127.0.0.1\' or auth.has_membership(role=\'teacher\') , requires_login=False)\ndef keshi_manage():\n    form = SQLFORM.smartgrid(db.keshi,\n                             links=[dict(header=\'\',body=lambda row:A(\'\xe6\x89\xb9\xe6\x94\xb9\xe4\xbd\x9c\xe4\xb8\x9a\',_href=URL(\'pigai\',args=row.id)))])\n    return dict(form=form)   \n\n@auth.requires(request.client==\'127.0.0.1\' or auth.has_membership(role=\'teacher\') , requires_login=False)\ndef timu_manage():\n    form = SQLFORM.smartgrid(db.timu)\n    return dict(form=form)      \n \n@auth.requires(request.client==\'127.0.0.1\' or auth.has_membership(role=\'teacher\') , requires_login=False)\ndef lianxi_manage():\n    form = SQLFORM.smartgrid(db.lianxi)\n    return dict(form=form)      \n\n@auth.requires(request.client==\'127.0.0.1\' or auth.has_membership(role=\'teacher\') , requires_login=False)\ndef zuoti_manage():\n    form = SQLFORM.smartgrid(db.zuoti)\n    return  dict(form=form)\n\n@auth.requires(request.client==\'127.0.0.1\' or auth.has_membership(role=\'teacher\') , requires_login=False)\ndef zuoye_manage():\n    form = SQLFORM.smartgrid(db.zuoye)\n    return  dict(form=form)\n\n@auth.requires(request.client==\'127.0.0.1\' or auth.has_membership(role=\'teacher\') , requires_login=False)\ndef defen_manage():\n    form = SQLFORM.smartgrid(db.defen)\n    return  dict(form=form)\n\n@auth.requires(request.client==\'127.0.0.1\' or auth.has_membership(role=\'teacher\') , requires_login=False)\ndef wangpan_manage():\n    form = SQLFORM.smartgrid(db.wangpan)\n    return  dict(form=form)\n\n@auth.requires(request.client==\'127.0.0.1\' or auth.has_membership(role=\'teacher\') , requires_login=False)\ndef pigai():\n    keshi_id=request.args[0]\n    db.zuoye.defen.writable=True\n    row=db(db.zuoye.keshi==keshi_id).select().first()\n    if row:\n        form=SQLFORM(db.zuoye,row.id,upload=URL(\'download\'))\n\n\n        return dict(form=form,vals=vals,req=request)\n    else:\n        return dict(error=H3(\'\xe6\xb2\xa1\xe6\x9c\x89\xe5\x8f\xaf\xe4\xbb\xa5\xe6\x89\xb9\xe6\x94\xb9\xe7\x9a\x84\xe4\xbd\x9c\xe4\xb8\x9a\'))\n    \ndef download():\n    """\n    allows downloading of uploaded files\n    http://..../[app]/default/download/[filename]\n    """\n    return response.download(request, db)\nresponse._vars=response._caller(pigai)\n'
p7
sS'snapshot'
p8
(dp9
S'exception'
p10
(dp11
S'__hash__'
p12
S"<method-wrapper '__hash__' of exceptions.NameError object>"
p13
sS'__setattr__'
p14
S"<method-wrapper '__setattr__' of exceptions.NameError object>"
p15
sS'__reduce_ex__'
p16
S'<built-in method __reduce_ex__ of exceptions.NameError object>'
p17
sS'__getslice__'
p18
S"<method-wrapper '__getslice__' of exceptions.NameError object>"
p19
sS'__getitem__'
p20
S"<method-wrapper '__getitem__' of exceptions.NameError object>"
p21
sS'__setstate__'
p22
S'<built-in method __setstate__ of exceptions.NameError object>'
p23
sS'__reduce__'
p24
S'<built-in method __reduce__ of exceptions.NameError object>'
p25
sS'__str__'
p26
S"<method-wrapper '__str__' of exceptions.NameError object>"
p27
sS'__format__'
p28
S'<built-in method __format__ of exceptions.NameError object>'
p29
sS'__getattribute__'
p30
S"<method-wrapper '__getattribute__' of exceptions.NameError object>"
p31
sS'__class__'
p32
S"<type 'exceptions.NameError'>"
p33
sS'__unicode__'
p34
S'<built-in method __unicode__ of exceptions.NameError object>'
p35
sS'__delattr__'
p36
S"<method-wrapper '__delattr__' of exceptions.NameError object>"
p37
sS'__subclasshook__'
p38
S'<built-in method __subclasshook__ of type object>'
p39
sS'__repr__'
p40
S"<method-wrapper '__repr__' of exceptions.NameError object>"
p41
sS'args'
p42
S'("global name \'vals\' is not defined",)'
p43
sS'__dict__'
p44
S'{}'
p45
sS'__sizeof__'
p46
S'<built-in method __sizeof__ of exceptions.NameError object>'
p47
sS'__doc__'
p48
S"'Name not found globally.'"
p49
sS'__init__'
p50
S"<method-wrapper '__init__' of exceptions.NameError object>"
p51
sS'__new__'
p52
S'<built-in method __new__ of type object>'
p53
ssS'evalue'
p54
S"global name 'vals' is not defined"
p55
sS'request'
p56
ccopy_reg
_reconstructor
p57
(cgluon.html
BEAUTIFY
p58
c__builtin__
object
p59
NtRp60
(dp61
S'attributes'
p62
(dp63
sS'components'
p64
(lp65
g57
(cgluon.html
TABLE
p66
g59
NtRp67
(dp68
g62
(dp69
S'level'
p70
I5
ssS'parent'
p71
Nsg64
(lp72
g57
(cgluon.html
TR
p73
g59
NtRp74
(dp75
g62
(dp76
sg71
g67
sg64
(lp77
g57
(cgluon.html
TD
p78
g59
NtRp79
(dp80
g62
(dp81
S'_style'
p82
S'font-weight:bold;vertical-align:top'
p83
ssg71
g74
sg64
(lp84
S'ajax'
p85
asbag57
(g78
g59
NtRp86
(dp87
g62
(dp88
S'_valign'
p89
S'top'
p90
ssg71
g74
sg64
(lp91
S':'
asbag57
(g78
g59
NtRp92
(dp93
g62
(dp94
sg71
g74
sg64
(lp95
g57
(g58
g59
NtRp96
(dp97
g62
(dp98
g70
I5
ssg71
g92
sg64
(lp99
S'False'
p100
asbasbasbag57
(g73
g59
NtRp101
(dp102
g62
(dp103
sg71
g67
sg64
(lp104
g57
(g78
g59
NtRp105
(dp106
g62
(dp107
g82
g83
ssg71
g101
sg64
(lp108
S'application'
p109
asbag57
(g78
g59
NtRp110
(dp111
g62
(dp112
g89
g90
ssg71
g101
sg64
(lp113
S':'
asbag57
(g78
g59
NtRp114
(dp115
g62
(dp116
sg71
g101
sg64
(lp117
g57
(g58
g59
NtRp118
(dp119
g62
(dp120
g70
I5
ssg71
g114
sg64
(lp121
S'hw4'
p122
asbasbasbag57
(g73
g59
NtRp123
(dp124
g62
(dp125
sg71
g67
sg64
(lp126
g57
(g78
g59
NtRp127
(dp128
g62
(dp129
g82
g83
ssg71
g123
sg64
(lp130
g42
asbag57
(g78
g59
NtRp131
(dp132
g62
(dp133
g89
g90
ssg71
g123
sg64
(lp134
S':'
asbag57
(g78
g59
NtRp135
(dp136
g62
(dp137
sg71
g123
sg64
(lp138
g57
(g58
g59
NtRp139
(dp140
g62
(dp141
g70
I5
ssg71
g135
sg64
(lp142
g57
(g66
g59
NtRp143
(dp144
g62
(dp145
g70
I4
ssg71
Nsg64
(lp146
g57
(g73
g59
NtRp147
(dp148
g62
(dp149
sg71
g143
sg64
(lp150
g57
(g78
g59
NtRp151
(dp152
g62
(dp153
sg71
g147
sg64
(lp154
g57
(g58
g59
NtRp155
(dp156
g62
(dp157
g70
I4
ssg71
g151
sg64
(lp158
S'1'
asbasbasbasbasbasbasbag57
(g73
g59
NtRp159
(dp160
g62
(dp161
sg71
g67
sg64
(lp162
g57
(g78
g59
NtRp163
(dp164
g62
(dp165
g82
g83
ssg71
g159
sg64
(lp166
S'body'
p167
asbag57
(g78
g59
NtRp168
(dp169
g62
(dp170
g89
g90
ssg71
g159
sg64
(lp171
S':'
asbag57
(g78
g59
NtRp172
(dp173
g62
(dp174
sg71
g159
sg64
(lp175
g57
(g58
g59
NtRp176
(dp177
g62
(dp178
g70
I5
ssg71
g172
sg64
(lp179
S'<cStringIO.StringO object at 0x058B5320>'
p180
asbasbasbag57
(g73
g59
NtRp181
(dp182
g62
(dp183
sg71
g67
sg64
(lp184
g57
(g78
g59
NtRp185
(dp186
g62
(dp187
g82
g83
ssg71
g181
sg64
(lp188
S'cid'
p189
asbag57
(g78
g59
NtRp190
(dp191
g62
(dp192
g89
g90
ssg71
g181
sg64
(lp193
S':'
asbag57
(g78
g59
NtRp194
(dp195
g62
(dp196
sg71
g181
sg64
(lp197
g57
(g58
g59
NtRp198
(dp199
g62
(dp200
g70
I5
ssg71
g194
sg64
(lp201
S'None'
p202
asbasbasbag57
(g73
g59
NtRp203
(dp204
g62
(dp205
sg71
g67
sg64
(lp206
g57
(g78
g59
NtRp207
(dp208
g62
(dp209
g82
g83
ssg71
g203
sg64
(lp210
S'client'
p211
asbag57
(g78
g59
NtRp212
(dp213
g62
(dp214
g89
g90
ssg71
g203
sg64
(lp215
S':'
asbag57
(g78
g59
NtRp216
(dp217
g62
(dp218
sg71
g203
sg64
(lp219
g57
(g58
g59
NtRp220
(dp221
g62
(dp222
g70
I5
ssg71
g216
sg64
(lp223
S'127.0.0.1'
p224
asbasbasbag57
(g73
g59
NtRp225
(dp226
g62
(dp227
sg71
g67
sg64
(lp228
g57
(g78
g59
NtRp229
(dp230
g62
(dp231
g82
g83
ssg71
g225
sg64
(lp232
S'controller'
p233
asbag57
(g78
g59
NtRp234
(dp235
g62
(dp236
g89
g90
ssg71
g225
sg64
(lp237
S':'
asbag57
(g78
g59
NtRp238
(dp239
g62
(dp240
sg71
g225
sg64
(lp241
g57
(g58
g59
NtRp242
(dp243
g62
(dp244
g70
I5
ssg71
g238
sg64
(lp245
S'teacher'
p246
asbasbasbag57
(g73
g59
NtRp247
(dp248
g62
(dp249
sg71
g67
sg64
(lp250
g57
(g78
g59
NtRp251
(dp252
g62
(dp253
g82
g83
ssg71
g247
sg64
(lp254
S'cookies'
p255
asbag57
(g78
g59
NtRp256
(dp257
g62
(dp258
g89
g90
ssg71
g247
sg64
(lp259
S':'
asbag57
(g78
g59
NtRp260
(dp261
g62
(dp262
sg71
g247
sg64
(lp263
g57
(g58
g59
NtRp264
(dp265
g62
(dp266
g70
I5
ssg71
g260
sg64
(lp267
g57
(g66
g59
NtRp268
(dp269
g62
(dp270
g70
I4
ssg71
Nsg64
(lp271
g57
(g73
g59
NtRp272
(dp273
g62
(dp274
sg71
g268
sg64
(lp275
g57
(g78
g59
NtRp276
(dp277
g62
(dp278
g82
g83
ssg71
g272
sg64
(lp279
S'session_id_admin'
p280
asbag57
(g78
g59
NtRp281
(dp282
g62
(dp283
g89
g90
ssg71
g272
sg64
(lp284
S':'
asbag57
(g78
g59
NtRp285
(dp286
g62
(dp287
sg71
g272
sg64
(lp288
g57
(g58
g59
NtRp289
(dp290
g62
(dp291
g70
I4
ssg71
g285
sg64
(lp292
S'127.0.0.1-a22d7029-4e6c-4054-a3d4-7e846ac7b65b'
p293
ag57
(g66
g59
NtRp294
(dp295
g62
(dp296
g70
I3
ssg71
Nsg64
(lp297
g57
(g73
g59
NtRp298
(dp299
g62
(dp300
sg71
g294
sg64
(lp301
g57
(g78
g59
NtRp302
(dp303
g62
(dp304
g82
g83
ssg71
g298
sg64
(lp305
S'comment'
p306
asbag57
(g78
g59
NtRp307
(dp308
g62
(dp309
g89
g90
ssg71
g298
sg64
(lp310
S':'
asbag57
(g78
g59
NtRp311
(dp312
g62
(dp313
sg71
g298
sg64
(lp314
g57
(g58
g59
NtRp315
(dp316
g62
(dp317
g70
I3
ssg71
g311
sg64
(lp318
S''
asbasbasbag57
(g73
g59
NtRp319
(dp320
g62
(dp321
sg71
g294
sg64
(lp322
g57
(g78
g59
NtRp323
(dp324
g62
(dp325
g82
g83
ssg71
g319
sg64
(lp326
S'domain'
p327
asbag57
(g78
g59
NtRp328
(dp329
g62
(dp330
g89
g90
ssg71
g319
sg64
(lp331
S':'
asbag57
(g78
g59
NtRp332
(dp333
g62
(dp334
sg71
g319
sg64
(lp335
g57
(g58
g59
NtRp336
(dp337
g62
(dp338
g70
I3
ssg71
g332
sg64
(lp339
S''
asbasbasbag57
(g73
g59
NtRp340
(dp341
g62
(dp342
sg71
g294
sg64
(lp343
g57
(g78
g59
NtRp344
(dp345
g62
(dp346
g82
g83
ssg71
g340
sg64
(lp347
S'expires'
p348
asbag57
(g78
g59
NtRp349
(dp350
g62
(dp351
g89
g90
ssg71
g340
sg64
(lp352
S':'
asbag57
(g78
g59
NtRp353
(dp354
g62
(dp355
sg71
g340
sg64
(lp356
g57
(g58
g59
NtRp357
(dp358
g62
(dp359
g70
I3
ssg71
g353
sg64
(lp360
S''
asbasbasbag57
(g73
g59
NtRp361
(dp362
g62
(dp363
sg71
g294
sg64
(lp364
g57
(g78
g59
NtRp365
(dp366
g62
(dp367
g82
g83
ssg71
g361
sg64
(lp368
S'httponly'
p369
asbag57
(g78
g59
NtRp370
(dp371
g62
(dp372
g89
g90
ssg71
g361
sg64
(lp373
S':'
asbag57
(g78
g59
NtRp374
(dp375
g62
(dp376
sg71
g361
sg64
(lp377
g57
(g58
g59
NtRp378
(dp379
g62
(dp380
g70
I3
ssg71
g374
sg64
(lp381
S''
asbasbasbag57
(g73
g59
NtRp382
(dp383
g62
(dp384
sg71
g294
sg64
(lp385
g57
(g78
g59
NtRp386
(dp387
g62
(dp388
g82
g83
ssg71
g382
sg64
(lp389
S'max-age'
p390
asbag57
(g78
g59
NtRp391
(dp392
g62
(dp393
g89
g90
ssg71
g382
sg64
(lp394
S':'
asbag57
(g78
g59
NtRp395
(dp396
g62
(dp397
sg71
g382
sg64
(lp398
g57
(g58
g59
NtRp399
(dp400
g62
(dp401
g70
I3
ssg71
g395
sg64
(lp402
S''
asbasbasbag57
(g73
g59
NtRp403
(dp404
g62
(dp405
sg71
g294
sg64
(lp406
g57
(g78
g59
NtRp407
(dp408
g62
(dp409
g82
g83
ssg71
g403
sg64
(lp410
S'path'
p411
asbag57
(g78
g59
NtRp412
(dp413
g62
(dp414
g89
g90
ssg71
g403
sg64
(lp415
S':'
asbag57
(g78
g59
NtRp416
(dp417
g62
(dp418
sg71
g403
sg64
(lp419
g57
(g58
g59
NtRp420
(dp421
g62
(dp422
g70
I3
ssg71
g416
sg64
(lp423
S''
asbasbasbag57
(g73
g59
NtRp424
(dp425
g62
(dp426
sg71
g294
sg64
(lp427
g57
(g78
g59
NtRp428
(dp429
g62
(dp430
g82
g83
ssg71
g424
sg64
(lp431
S'secure'
p432
asbag57
(g78
g59
NtRp433
(dp434
g62
(dp435
g89
g90
ssg71
g424
sg64
(lp436
S':'
asbag57
(g78
g59
NtRp437
(dp438
g62
(dp439
sg71
g424
sg64
(lp440
g57
(g58
g59
NtRp441
(dp442
g62
(dp443
g70
I3
ssg71
g437
sg64
(lp444
S''
asbasbasbag57
(g73
g59
NtRp445
(dp446
g62
(dp447
sg71
g294
sg64
(lp448
g57
(g78
g59
NtRp449
(dp450
g62
(dp451
g82
g83
ssg71
g445
sg64
(lp452
S'version'
p453
asbag57
(g78
g59
NtRp454
(dp455
g62
(dp456
g89
g90
ssg71
g445
sg64
(lp457
S':'
asbag57
(g78
g59
NtRp458
(dp459
g62
(dp460
sg71
g445
sg64
(lp461
g57
(g58
g59
NtRp462
(dp463
g62
(dp464
g70
I3
ssg71
g458
sg64
(lp465
S''
asbasbasbasbasbasbasbag57
(g73
g59
NtRp466
(dp467
g62
(dp468
sg71
g268
sg64
(lp469
g57
(g78
g59
NtRp470
(dp471
g62
(dp472
g82
g83
ssg71
g466
sg64
(lp473
S'session_id_hw4'
p474
asbag57
(g78
g59
NtRp475
(dp476
g62
(dp477
g89
g90
ssg71
g466
sg64
(lp478
S':'
asbag57
(g78
g59
NtRp479
(dp480
g62
(dp481
sg71
g466
sg64
(lp482
g57
(g58
g59
NtRp483
(dp484
g62
(dp485
g70
I4
ssg71
g479
sg64
(lp486
S'127.0.0.1-187b8bdf-a2bd-43f7-b0a1-ab75394324e0'
p487
ag57
(g66
g59
NtRp488
(dp489
g62
(dp490
g70
I3
ssg71
Nsg64
(lp491
g57
(g73
g59
NtRp492
(dp493
g62
(dp494
sg71
g488
sg64
(lp495
g57
(g78
g59
NtRp496
(dp497
g62
(dp498
g82
g83
ssg71
g492
sg64
(lp499
g306
asbag57
(g78
g59
NtRp500
(dp501
g62
(dp502
g89
g90
ssg71
g492
sg64
(lp503
S':'
asbag57
(g78
g59
NtRp504
(dp505
g62
(dp506
sg71
g492
sg64
(lp507
g57
(g58
g59
NtRp508
(dp509
g62
(dp510
g70
I3
ssg71
g504
sg64
(lp511
S''
asbasbasbag57
(g73
g59
NtRp512
(dp513
g62
(dp514
sg71
g488
sg64
(lp515
g57
(g78
g59
NtRp516
(dp517
g62
(dp518
g82
g83
ssg71
g512
sg64
(lp519
g327
asbag57
(g78
g59
NtRp520
(dp521
g62
(dp522
g89
g90
ssg71
g512
sg64
(lp523
S':'
asbag57
(g78
g59
NtRp524
(dp525
g62
(dp526
sg71
g512
sg64
(lp527
g57
(g58
g59
NtRp528
(dp529
g62
(dp530
g70
I3
ssg71
g524
sg64
(lp531
S''
asbasbasbag57
(g73
g59
NtRp532
(dp533
g62
(dp534
sg71
g488
sg64
(lp535
g57
(g78
g59
NtRp536
(dp537
g62
(dp538
g82
g83
ssg71
g532
sg64
(lp539
g348
asbag57
(g78
g59
NtRp540
(dp541
g62
(dp542
g89
g90
ssg71
g532
sg64
(lp543
S':'
asbag57
(g78
g59
NtRp544
(dp545
g62
(dp546
sg71
g532
sg64
(lp547
g57
(g58
g59
NtRp548
(dp549
g62
(dp550
g70
I3
ssg71
g544
sg64
(lp551
S''
asbasbasbag57
(g73
g59
NtRp552
(dp553
g62
(dp554
sg71
g488
sg64
(lp555
g57
(g78
g59
NtRp556
(dp557
g62
(dp558
g82
g83
ssg71
g552
sg64
(lp559
g369
asbag57
(g78
g59
NtRp560
(dp561
g62
(dp562
g89
g90
ssg71
g552
sg64
(lp563
S':'
asbag57
(g78
g59
NtRp564
(dp565
g62
(dp566
sg71
g552
sg64
(lp567
g57
(g58
g59
NtRp568
(dp569
g62
(dp570
g70
I3
ssg71
g564
sg64
(lp571
S''
asbasbasbag57
(g73
g59
NtRp572
(dp573
g62
(dp574
sg71
g488
sg64
(lp575
g57
(g78
g59
NtRp576
(dp577
g62
(dp578
g82
g83
ssg71
g572
sg64
(lp579
g390
asbag57
(g78
g59
NtRp580
(dp581
g62
(dp582
g89
g90
ssg71
g572
sg64
(lp583
S':'
asbag57
(g78
g59
NtRp584
(dp585
g62
(dp586
sg71
g572
sg64
(lp587
g57
(g58
g59
NtRp588
(dp589
g62
(dp590
g70
I3
ssg71
g584
sg64
(lp591
S''
asbasbasbag57
(g73
g59
NtRp592
(dp593
g62
(dp594
sg71
g488
sg64
(lp595
g57
(g78
g59
NtRp596
(dp597
g62
(dp598
g82
g83
ssg71
g592
sg64
(lp599
g411
asbag57
(g78
g59
NtRp600
(dp601
g62
(dp602
g89
g90
ssg71
g592
sg64
(lp603
S':'
asbag57
(g78
g59
NtRp604
(dp605
g62
(dp606
sg71
g592
sg64
(lp607
g57
(g58
g59
NtRp608
(dp609
g62
(dp610
g70
I3
ssg71
g604
sg64
(lp611
S''
asbasbasbag57
(g73
g59
NtRp612
(dp613
g62
(dp614
sg71
g488
sg64
(lp615
g57
(g78
g59
NtRp616
(dp617
g62
(dp618
g82
g83
ssg71
g612
sg64
(lp619
g432
asbag57
(g78
g59
NtRp620
(dp621
g62
(dp622
g89
g90
ssg71
g612
sg64
(lp623
S':'
asbag57
(g78
g59
NtRp624
(dp625
g62
(dp626
sg71
g612
sg64
(lp627
g57
(g58
g59
NtRp628
(dp629
g62
(dp630
g70
I3
ssg71
g624
sg64
(lp631
S''
asbasbasbag57
(g73
g59
NtRp632
(dp633
g62
(dp634
sg71
g488
sg64
(lp635
g57
(g78
g59
NtRp636
(dp637
g62
(dp638
g82
g83
ssg71
g632
sg64
(lp639
g453
asbag57
(g78
g59
NtRp640
(dp641
g62
(dp642
g89
g90
ssg71
g632
sg64
(lp643
S':'
asbag57
(g78
g59
NtRp644
(dp645
g62
(dp646
sg71
g632
sg64
(lp647
g57
(g58
g59
NtRp648
(dp649
g62
(dp650
g70
I3
ssg71
g644
sg64
(lp651
S''
asbasbasbasbasbasbasbasbasbasbasbag57
(g73
g59
NtRp652
(dp653
g62
(dp654
sg71
g67
sg64
(lp655
g57
(g78
g59
NtRp656
(dp657
g62
(dp658
g82
g83
ssg71
g652
sg64
(lp659
S'env'
p660
asbag57
(g78
g59
NtRp661
(dp662
g62
(dp663
g89
g90
ssg71
g652
sg64
(lp664
S':'
asbag57
(g78
g59
NtRp665
(dp666
g62
(dp667
sg71
g652
sg64
(lp668
g57
(g58
g59
NtRp669
(dp670
g62
(dp671
g70
I5
ssg71
g665
sg64
(lp672
g57
(g66
g59
NtRp673
(dp674
g62
(dp675
g70
I4
ssg71
Nsg64
(lp676
g57
(g73
g59
NtRp677
(dp678
g62
(dp679
sg71
g673
sg64
(lp680
g57
(g78
g59
NtRp681
(dp682
g62
(dp683
g82
g83
ssg71
g677
sg64
(lp684
S'app_folders'
p685
asbag57
(g78
g59
NtRp686
(dp687
g62
(dp688
g89
g90
ssg71
g677
sg64
(lp689
S':'
asbag57
(g78
g59
NtRp690
(dp691
g62
(dp692
sg71
g677
sg64
(lp693
g57
(g58
g59
NtRp694
(dp695
g62
(dp696
g70
I4
ssg71
g690
sg64
(lp697
S"set(['C:\\\\Python27\\\\web2py\\\\applications\\\\admin\\\\', 'C:\\\\Python27\\\\web2py\\\\applications\\\\welcome\\\\', 'C:\\\\Python27\\\\web2py\\\\applications\\\\hw4\\\\'])"
p698
asbasbasbag57
(g73
g59
NtRp699
(dp700
g62
(dp701
sg71
g673
sg64
(lp702
g57
(g78
g59
NtRp703
(dp704
g62
(dp705
g82
g83
ssg71
g699
sg64
(lp706
S'applications_parent'
p707
asbag57
(g78
g59
NtRp708
(dp709
g62
(dp710
g89
g90
ssg71
g699
sg64
(lp711
S':'
asbag57
(g78
g59
NtRp712
(dp713
g62
(dp714
sg71
g699
sg64
(lp715
g57
(g58
g59
NtRp716
(dp717
g62
(dp718
g70
I4
ssg71
g712
sg64
(lp719
S'C:\\Python27\\web2py'
p720
asbasbasbag57
(g73
g59
NtRp721
(dp722
g62
(dp723
sg71
g673
sg64
(lp724
g57
(g78
g59
NtRp725
(dp726
g62
(dp727
g82
g83
ssg71
g721
sg64
(lp728
S'cmd_args'
p729
asbag57
(g78
g59
NtRp730
(dp731
g62
(dp732
g89
g90
ssg71
g721
sg64
(lp733
S':'
asbag57
(g78
g59
NtRp734
(dp735
g62
(dp736
sg71
g721
sg64
(lp737
g57
(g58
g59
NtRp738
(dp739
g62
(dp740
g70
I4
ssg71
g734
sg64
(lp741
g57
(g66
g59
NtRp742
(dp743
g62
(dp744
g70
I3
ssg71
Nsg64
(lp745
sbasbasbasbag57
(g73
g59
NtRp746
(dp747
g62
(dp748
sg71
g673
sg64
(lp749
g57
(g78
g59
NtRp750
(dp751
g62
(dp752
g82
g83
ssg71
g746
sg64
(lp753
S'cmd_options'
p754
asbag57
(g78
g59
NtRp755
(dp756
g62
(dp757
g89
g90
ssg71
g746
sg64
(lp758
S':'
asbag57
(g78
g59
NtRp759
(dp760
g62
(dp761
sg71
g746
sg64
(lp762
g57
(g58
g59
NtRp763
(dp764
g62
(dp765
g70
I4
ssg71
g759
sg64
(lp766
S"<Values at 0x17c00f8: {'verbose': False, 'ip': '127.0.0.1', 'with_scheduler': False, 'ips': ['192.168.1.101'], 'shutdown_timeout': 5, 'taskbar': False, 'port': 8000, 'maxthreads': None, 'softcron': False, 'server_name': 'FREESKYC-5359CC', 'bpython': False, 'nogui': False, 'pid_filename': 'httpserver.pid', 'extcron': False, 'runcron': False, 'run_system_tests': False, 'test': None, 'folder': 'C:\\\\Python27\\\\web2py', 'config': '', 'import_models': False, 'winservice': '', 'shell': None, 'run': '', 'log_filename': 'httpserver.log', 'debuglevel': 30, 'args': [''], 'socket_timeout': 5, 'ssl_ca_certificate': None, 'scheduler': None, 'profiler_filename': None, 'ssl_private_key': '', 'scheduler_groups': None, 'password': '<ask>', 'request_queue_size': 5, 'ssl_certificate': '', 'cronjob': False, 'numthreads': None, 'quiet': False, 'interfaces': None, 'minthreads': None, 'timeout': 10, 'plain': False, 'nobanner': False}>"
p767
asbasbasbag57
(g73
g59
NtRp768
(dp769
g62
(dp770
sg71
g673
sg64
(lp771
g57
(g78
g59
NtRp772
(dp773
g62
(dp774
g82
g83
ssg71
g768
sg64
(lp775
S'db_sessions'
p776
asbag57
(g78
g59
NtRp777
(dp778
g62
(dp779
g89
g90
ssg71
g768
sg64
(lp780
S':'
asbag57
(g78
g59
NtRp781
(dp782
g62
(dp783
sg71
g768
sg64
(lp784
g57
(g58
g59
NtRp785
(dp786
g62
(dp787
g70
I4
ssg71
g781
sg64
(lp788
S'set([])'
p789
asbasbasbag57
(g73
g59
NtRp790
(dp791
g62
(dp792
sg71
g673
sg64
(lp793
g57
(g78
g59
NtRp794
(dp795
g62
(dp796
g82
g83
ssg71
g790
sg64
(lp797
S'debugging'
p798
asbag57
(g78
g59
NtRp799
(dp800
g62
(dp801
g89
g90
ssg71
g790
sg64
(lp802
S':'
asbag57
(g78
g59
NtRp803
(dp804
g62
(dp805
sg71
g790
sg64
(lp806
g57
(g58
g59
NtRp807
(dp808
g62
(dp809
g70
I4
ssg71
g803
sg64
(lp810
g100
asbasbasbag57
(g73
g59
NtRp811
(dp812
g62
(dp813
sg71
g673
sg64
(lp814
g57
(g78
g59
NtRp815
(dp816
g62
(dp817
g82
g83
ssg71
g811
sg64
(lp818
S'gluon_parent'
p819
asbag57
(g78
g59
NtRp820
(dp821
g62
(dp822
g89
g90
ssg71
g811
sg64
(lp823
S':'
asbag57
(g78
g59
NtRp824
(dp825
g62
(dp826
sg71
g811
sg64
(lp827
g57
(g58
g59
NtRp828
(dp829
g62
(dp830
g70
I4
ssg71
g824
sg64
(lp831
S'C:\\Python27\\web2py'
p832
asbasbasbag57
(g73
g59
NtRp833
(dp834
g62
(dp835
sg71
g673
sg64
(lp836
g57
(g78
g59
NtRp837
(dp838
g62
(dp839
g82
g83
ssg71
g833
sg64
(lp840
S'http_accept'
p841
asbag57
(g78
g59
NtRp842
(dp843
g62
(dp844
g89
g90
ssg71
g833
sg64
(lp845
S':'
asbag57
(g78
g59
NtRp846
(dp847
g62
(dp848
sg71
g833
sg64
(lp849
g57
(g58
g59
NtRp850
(dp851
g62
(dp852
g70
I4
ssg71
g846
sg64
(lp853
S'text/html,application/xhtml+xml,application/xml;q=0.9,*/*;q=0.8'
p854
asbasbasbag57
(g73
g59
NtRp855
(dp856
g62
(dp857
sg71
g673
sg64
(lp858
g57
(g78
g59
NtRp859
(dp860
g62
(dp861
g82
g83
ssg71
g855
sg64
(lp862
S'http_accept_charset'
p863
asbag57
(g78
g59
NtRp864
(dp865
g62
(dp866
g89
g90
ssg71
g855
sg64
(lp867
S':'
asbag57
(g78
g59
NtRp868
(dp869
g62
(dp870
sg71
g855
sg64
(lp871
g57
(g58
g59
NtRp872
(dp873
g62
(dp874
g70
I4
ssg71
g868
sg64
(lp875
S'GBK,utf-8;q=0.7,*;q=0.3'
p876
asbasbasbag57
(g73
g59
NtRp877
(dp878
g62
(dp879
sg71
g673
sg64
(lp880
g57
(g78
g59
NtRp881
(dp882
g62
(dp883
g82
g83
ssg71
g877
sg64
(lp884
S'http_accept_encoding'
p885
asbag57
(g78
g59
NtRp886
(dp887
g62
(dp888
g89
g90
ssg71
g877
sg64
(lp889
S':'
asbag57
(g78
g59
NtRp890
(dp891
g62
(dp892
sg71
g877
sg64
(lp893
g57
(g58
g59
NtRp894
(dp895
g62
(dp896
g70
I4
ssg71
g890
sg64
(lp897
S'gzip,deflate'
p898
asbasbasbag57
(g73
g59
NtRp899
(dp900
g62
(dp901
sg71
g673
sg64
(lp902
g57
(g78
g59
NtRp903
(dp904
g62
(dp905
g82
g83
ssg71
g899
sg64
(lp906
S'http_accept_language'
p907
asbag57
(g78
g59
NtRp908
(dp909
g62
(dp910
g89
g90
ssg71
g899
sg64
(lp911
S':'
asbag57
(g78
g59
NtRp912
(dp913
g62
(dp914
sg71
g899
sg64
(lp915
g57
(g58
g59
NtRp916
(dp917
g62
(dp918
g70
I4
ssg71
g912
sg64
(lp919
S'zh-CN,zh;q=0.8'
p920
asbasbasbag57
(g73
g59
NtRp921
(dp922
g62
(dp923
sg71
g673
sg64
(lp924
g57
(g78
g59
NtRp925
(dp926
g62
(dp927
g82
g83
ssg71
g921
sg64
(lp928
S'http_connection'
p929
asbag57
(g78
g59
NtRp930
(dp931
g62
(dp932
g89
g90
ssg71
g921
sg64
(lp933
S':'
asbag57
(g78
g59
NtRp934
(dp935
g62
(dp936
sg71
g921
sg64
(lp937
g57
(g58
g59
NtRp938
(dp939
g62
(dp940
g70
I4
ssg71
g934
sg64
(lp941
S'keep-alive'
p942
asbasbasbag57
(g73
g59
NtRp943
(dp944
g62
(dp945
sg71
g673
sg64
(lp946
g57
(g78
g59
NtRp947
(dp948
g62
(dp949
g82
g83
ssg71
g943
sg64
(lp950
S'http_cookie'
p951
asbag57
(g78
g59
NtRp952
(dp953
g62
(dp954
g89
g90
ssg71
g943
sg64
(lp955
S':'
asbag57
(g78
g59
NtRp956
(dp957
g62
(dp958
sg71
g943
sg64
(lp959
g57
(g58
g59
NtRp960
(dp961
g62
(dp962
g70
I4
ssg71
g956
sg64
(lp963
S'session_id_admin=127.0.0.1-a22d7029-4e6c-4054-a3d4-7e846ac7b65b; session_id_hw4=127.0.0.1-187b8bdf-a2bd-43f7-b0a1-ab75394324e0'
p964
asbasbasbag57
(g73
g59
NtRp965
(dp966
g62
(dp967
sg71
g673
sg64
(lp968
g57
(g78
g59
NtRp969
(dp970
g62
(dp971
g82
g83
ssg71
g965
sg64
(lp972
S'http_host'
p973
asbag57
(g78
g59
NtRp974
(dp975
g62
(dp976
g89
g90
ssg71
g965
sg64
(lp977
S':'
asbag57
(g78
g59
NtRp978
(dp979
g62
(dp980
sg71
g965
sg64
(lp981
g57
(g58
g59
NtRp982
(dp983
g62
(dp984
g70
I4
ssg71
g978
sg64
(lp985
S'127.0.0.1:8000'
p986
asbasbasbag57
(g73
g59
NtRp987
(dp988
g62
(dp989
sg71
g673
sg64
(lp990
g57
(g78
g59
NtRp991
(dp992
g62
(dp993
g82
g83
ssg71
g987
sg64
(lp994
S'http_referer'
p995
asbag57
(g78
g59
NtRp996
(dp997
g62
(dp998
g89
g90
ssg71
g987
sg64
(lp999
S':'
asbag57
(g78
g59
NtRp1000
(dp1001
g62
(dp1002
sg71
g987
sg64
(lp1003
g57
(g58
g59
NtRp1004
(dp1005
g62
(dp1006
g70
I4
ssg71
g1000
sg64
(lp1007
S'http://127.0.0.1:8000/hw4/teacher/keshi_manage.html'
p1008
asbasbasbag57
(g73
g59
NtRp1009
(dp1010
g62
(dp1011
sg71
g673
sg64
(lp1012
g57
(g78
g59
NtRp1013
(dp1014
g62
(dp1015
g82
g83
ssg71
g1009
sg64
(lp1016
S'http_user_agent'
p1017
asbag57
(g78
g59
NtRp1018
(dp1019
g62
(dp1020
g89
g90
ssg71
g1009
sg64
(lp1021
S':'
asbag57
(g78
g59
NtRp1022
(dp1023
g62
(dp1024
sg71
g1009
sg64
(lp1025
g57
(g58
g59
NtRp1026
(dp1027
g62
(dp1028
g70
I4
ssg71
g1022
sg64
(lp1029
S'Mozilla/5.0 (Windows NT 5.1) AppleWebKit/535.11 (KHTML, like Gecko) Chrome/17.0.963.84 Safari/535.11 SE 2.X MetaSr 1.0'
p1030
asbasbasbag57
(g73
g59
NtRp1031
(dp1032
g62
(dp1033
sg71
g673
sg64
(lp1034
g57
(g78
g59
NtRp1035
(dp1036
g62
(dp1037
g82
g83
ssg71
g1031
sg64
(lp1038
S'is_jython'
p1039
asbag57
(g78
g59
NtRp1040
(dp1041
g62
(dp1042
g89
g90
ssg71
g1031
sg64
(lp1043
S':'
asbag57
(g78
g59
NtRp1044
(dp1045
g62
(dp1046
sg71
g1031
sg64
(lp1047
g57
(g58
g59
NtRp1048
(dp1049
g62
(dp1050
g70
I4
ssg71
g1044
sg64
(lp1051
g100
asbasbasbag57
(g73
g59
NtRp1052
(dp1053
g62
(dp1054
sg71
g673
sg64
(lp1055
g57
(g78
g59
NtRp1056
(dp1057
g62
(dp1058
g82
g83
ssg71
g1052
sg64
(lp1059
S'is_pypy'
p1060
asbag57
(g78
g59
NtRp1061
(dp1062
g62
(dp1063
g89
g90
ssg71
g1052
sg64
(lp1064
S':'
asbag57
(g78
g59
NtRp1065
(dp1066
g62
(dp1067
sg71
g1052
sg64
(lp1068
g57
(g58
g59
NtRp1069
(dp1070
g62
(dp1071
g70
I4
ssg71
g1065
sg64
(lp1072
g100
asbasbasbag57
(g73
g59
NtRp1073
(dp1074
g62
(dp1075
sg71
g673
sg64
(lp1076
g57
(g78
g59
NtRp1077
(dp1078
g62
(dp1079
g82
g83
ssg71
g1073
sg64
(lp1080
S'local_hosts'
p1081
asbag57
(g78
g59
NtRp1082
(dp1083
g62
(dp1084
g89
g90
ssg71
g1073
sg64
(lp1085
S':'
asbag57
(g78
g59
NtRp1086
(dp1087
g62
(dp1088
sg71
g1073
sg64
(lp1089
g57
(g58
g59
NtRp1090
(dp1091
g62
(dp1092
g70
I4
ssg71
g1086
sg64
(lp1093
g57
(g66
g59
NtRp1094
(dp1095
g62
(dp1096
g70
I3
ssg71
Nsg64
(lp1097
g57
(g73
g59
NtRp1098
(dp1099
g62
(dp1100
sg71
g1094
sg64
(lp1101
g57
(g78
g59
NtRp1102
(dp1103
g62
(dp1104
sg71
g1098
sg64
(lp1105
g57
(g58
g59
NtRp1106
(dp1107
g62
(dp1108
g70
I3
ssg71
g1102
sg64
(lp1109
S'192.168.1.101'
p1110
asbasbasbag57
(g73
g59
NtRp1111
(dp1112
g62
(dp1113
sg71
g1094
sg64
(lp1114
g57
(g78
g59
NtRp1115
(dp1116
g62
(dp1117
sg71
g1111
sg64
(lp1118
g57
(g58
g59
NtRp1119
(dp1120
g62
(dp1121
g70
I3
ssg71
g1115
sg64
(lp1122
S'::1'
p1123
asbasbasbag57
(g73
g59
NtRp1124
(dp1125
g62
(dp1126
sg71
g1094
sg64
(lp1127
g57
(g78
g59
NtRp1128
(dp1129
g62
(dp1130
sg71
g1124
sg64
(lp1131
g57
(g58
g59
NtRp1132
(dp1133
g62
(dp1134
g70
I3
ssg71
g1128
sg64
(lp1135
S'FREESKYC-5359CC'
p1136
asbasbasbag57
(g73
g59
NtRp1137
(dp1138
g62
(dp1139
sg71
g1094
sg64
(lp1140
g57
(g78
g59
NtRp1141
(dp1142
g62
(dp1143
sg71
g1137
sg64
(lp1144
g57
(g58
g59
NtRp1145
(dp1146
g62
(dp1147
g70
I3
ssg71
g1141
sg64
(lp1148
S'::ffff:127.0.0.1'
p1149
asbasbasbag57
(g73
g59
NtRp1150
(dp1151
g62
(dp1152
sg71
g1094
sg64
(lp1153
g57
(g78
g59
NtRp1154
(dp1155
g62
(dp1156
sg71
g1150
sg64
(lp1157
g57
(g58
g59
NtRp1158
(dp1159
g62
(dp1160
g70
I3
ssg71
g1154
sg64
(lp1161
S'127.0.0.1'
p1162
asbasbasbasbasbasbasbag57
(g73
g59
NtRp1163
(dp1164
g62
(dp1165
sg71
g673
sg64
(lp1166
g57
(g78
g59
NtRp1167
(dp1168
g62
(dp1169
g82
g83
ssg71
g1163
sg64
(lp1170
S'path_info'
p1171
asbag57
(g78
g59
NtRp1172
(dp1173
g62
(dp1174
g89
g90
ssg71
g1163
sg64
(lp1175
S':'
asbag57
(g78
g59
NtRp1176
(dp1177
g62
(dp1178
sg71
g1163
sg64
(lp1179
g57
(g58
g59
NtRp1180
(dp1181
g62
(dp1182
g70
I4
ssg71
g1176
sg64
(lp1183
S'/hw4/teacher/pigai/1'
p1184
asbasbasbag57
(g73
g59
NtRp1185
(dp1186
g62
(dp1187
sg71
g673
sg64
(lp1188
g57
(g78
g59
NtRp1189
(dp1190
g62
(dp1191
g82
g83
ssg71
g1185
sg64
(lp1192
S'query_string'
p1193
asbag57
(g78
g59
NtRp1194
(dp1195
g62
(dp1196
g89
g90
ssg71
g1185
sg64
(lp1197
S':'
asbag57
(g78
g59
NtRp1198
(dp1199
g62
(dp1200
sg71
g1185
sg64
(lp1201
g57
(g58
g59
NtRp1202
(dp1203
g62
(dp1204
g70
I4
ssg71
g1198
sg64
(lp1205
S''
asbasbasbag57
(g73
g59
NtRp1206
(dp1207
g62
(dp1208
sg71
g673
sg64
(lp1209
g57
(g78
g59
NtRp1210
(dp1211
g62
(dp1212
g82
g83
ssg71
g1206
sg64
(lp1213
S'remote_addr'
p1214
asbag57
(g78
g59
NtRp1215
(dp1216
g62
(dp1217
g89
g90
ssg71
g1206
sg64
(lp1218
S':'
asbag57
(g78
g59
NtRp1219
(dp1220
g62
(dp1221
sg71
g1206
sg64
(lp1222
g57
(g58
g59
NtRp1223
(dp1224
g62
(dp1225
g70
I4
ssg71
g1219
sg64
(lp1226
g224
asbasbasbag57
(g73
g59
NtRp1227
(dp1228
g62
(dp1229
sg71
g673
sg64
(lp1230
g57
(g78
g59
NtRp1231
(dp1232
g62
(dp1233
g82
g83
ssg71
g1227
sg64
(lp1234
S'remote_port'
p1235
asbag57
(g78
g59
NtRp1236
(dp1237
g62
(dp1238
g89
g90
ssg71
g1227
sg64
(lp1239
S':'
asbag57
(g78
g59
NtRp1240
(dp1241
g62
(dp1242
sg71
g1227
sg64
(lp1243
g57
(g58
g59
NtRp1244
(dp1245
g62
(dp1246
g70
I4
ssg71
g1240
sg64
(lp1247
S'4924'
p1248
asbasbasbag57
(g73
g59
NtRp1249
(dp1250
g62
(dp1251
sg71
g673
sg64
(lp1252
g57
(g78
g59
NtRp1253
(dp1254
g62
(dp1255
g82
g83
ssg71
g1249
sg64
(lp1256
S'request_method'
p1257
asbag57
(g78
g59
NtRp1258
(dp1259
g62
(dp1260
g89
g90
ssg71
g1249
sg64
(lp1261
S':'
asbag57
(g78
g59
NtRp1262
(dp1263
g62
(dp1264
sg71
g1249
sg64
(lp1265
g57
(g58
g59
NtRp1266
(dp1267
g62
(dp1268
g70
I4
ssg71
g1262
sg64
(lp1269
S'GET'
p1270
asbasbasbag57
(g73
g59
NtRp1271
(dp1272
g62
(dp1273
sg71
g673
sg64
(lp1274
g57
(g78
g59
NtRp1275
(dp1276
g62
(dp1277
g82
g83
ssg71
g1271
sg64
(lp1278
S'request_uri'
p1279
asbag57
(g78
g59
NtRp1280
(dp1281
g62
(dp1282
g89
g90
ssg71
g1271
sg64
(lp1283
S':'
asbag57
(g78
g59
NtRp1284
(dp1285
g62
(dp1286
sg71
g1271
sg64
(lp1287
g57
(g58
g59
NtRp1288
(dp1289
g62
(dp1290
g70
I4
ssg71
g1284
sg64
(lp1291
g1184
asbasbasbag57
(g73
g59
NtRp1292
(dp1293
g62
(dp1294
sg71
g673
sg64
(lp1295
g57
(g78
g59
NtRp1296
(dp1297
g62
(dp1298
g82
g83
ssg71
g1292
sg64
(lp1299
S'script_name'
p1300
asbag57
(g78
g59
NtRp1301
(dp1302
g62
(dp1303
g89
g90
ssg71
g1292
sg64
(lp1304
S':'
asbag57
(g78
g59
NtRp1305
(dp1306
g62
(dp1307
sg71
g1292
sg64
(lp1308
g57
(g58
g59
NtRp1309
(dp1310
g62
(dp1311
g70
I4
ssg71
g1305
sg64
(lp1312
S''
asbasbasbag57
(g73
g59
NtRp1313
(dp1314
g62
(dp1315
sg71
g673
sg64
(lp1316
g57
(g78
g59
NtRp1317
(dp1318
g62
(dp1319
g82
g83
ssg71
g1313
sg64
(lp1320
S'server_name'
p1321
asbag57
(g78
g59
NtRp1322
(dp1323
g62
(dp1324
g89
g90
ssg71
g1313
sg64
(lp1325
S':'
asbag57
(g78
g59
NtRp1326
(dp1327
g62
(dp1328
sg71
g1313
sg64
(lp1329
g57
(g58
g59
NtRp1330
(dp1331
g62
(dp1332
g70
I4
ssg71
g1326
sg64
(lp1333
S'FREESKYC-5359CC'
p1334
asbasbasbag57
(g73
g59
NtRp1335
(dp1336
g62
(dp1337
sg71
g673
sg64
(lp1338
g57
(g78
g59
NtRp1339
(dp1340
g62
(dp1341
g82
g83
ssg71
g1335
sg64
(lp1342
S'server_port'
p1343
asbag57
(g78
g59
NtRp1344
(dp1345
g62
(dp1346
g89
g90
ssg71
g1335
sg64
(lp1347
S':'
asbag57
(g78
g59
NtRp1348
(dp1349
g62
(dp1350
sg71
g1335
sg64
(lp1351
g57
(g58
g59
NtRp1352
(dp1353
g62
(dp1354
g70
I4
ssg71
g1348
sg64
(lp1355
S'8000'
p1356
asbasbasbag57
(g73
g59
NtRp1357
(dp1358
g62
(dp1359
sg71
g673
sg64
(lp1360
g57
(g78
g59
NtRp1361
(dp1362
g62
(dp1363
g82
g83
ssg71
g1357
sg64
(lp1364
S'server_protocol'
p1365
asbag57
(g78
g59
NtRp1366
(dp1367
g62
(dp1368
g89
g90
ssg71
g1357
sg64
(lp1369
S':'
asbag57
(g78
g59
NtRp1370
(dp1371
g62
(dp1372
sg71
g1357
sg64
(lp1373
g57
(g58
g59
NtRp1374
(dp1375
g62
(dp1376
g70
I4
ssg71
g1370
sg64
(lp1377
S'HTTP/1.1'
p1378
asbasbasbag57
(g73
g59
NtRp1379
(dp1380
g62
(dp1381
sg71
g673
sg64
(lp1382
g57
(g78
g59
NtRp1383
(dp1384
g62
(dp1385
g82
g83
ssg71
g1379
sg64
(lp1386
S'server_software'
p1387
asbag57
(g78
g59
NtRp1388
(dp1389
g62
(dp1390
g89
g90
ssg71
g1379
sg64
(lp1391
S':'
asbag57
(g78
g59
NtRp1392
(dp1393
g62
(dp1394
sg71
g1379
sg64
(lp1395
g57
(g58
g59
NtRp1396
(dp1397
g62
(dp1398
g70
I4
ssg71
g1392
sg64
(lp1399
S'Rocket 1.2.6'
p1400
asbasbasbag57
(g73
g59
NtRp1401
(dp1402
g62
(dp1403
sg71
g673
sg64
(lp1404
g57
(g78
g59
NtRp1405
(dp1406
g62
(dp1407
g82
g83
ssg71
g1401
sg64
(lp1408
S'web2py_path'
p1409
asbag57
(g78
g59
NtRp1410
(dp1411
g62
(dp1412
g89
g90
ssg71
g1401
sg64
(lp1413
S':'
asbag57
(g78
g59
NtRp1414
(dp1415
g62
(dp1416
sg71
g1401
sg64
(lp1417
g57
(g58
g59
NtRp1418
(dp1419
g62
(dp1420
g70
I4
ssg71
g1414
sg64
(lp1421
g720
asbasbasbag57
(g73
g59
NtRp1422
(dp1423
g62
(dp1424
sg71
g673
sg64
(lp1425
g57
(g78
g59
NtRp1426
(dp1427
g62
(dp1428
g82
g83
ssg71
g1422
sg64
(lp1429
S'web2py_version'
p1430
asbag57
(g78
g59
NtRp1431
(dp1432
g62
(dp1433
g89
g90
ssg71
g1422
sg64
(lp1434
S':'
asbag57
(g78
g59
NtRp1435
(dp1436
g62
(dp1437
sg71
g1422
sg64
(lp1438
g57
(g58
g59
NtRp1439
(dp1440
g62
(dp1441
g70
I4
ssg71
g1435
sg64
(lp1442
g57
(g66
g59
NtRp1443
(dp1444
g62
(dp1445
g70
I3
ssg71
Nsg64
(lp1446
g57
(g73
g59
NtRp1447
(dp1448
g62
(dp1449
sg71
g1443
sg64
(lp1450
g57
(g78
g59
NtRp1451
(dp1452
g62
(dp1453
sg71
g1447
sg64
(lp1454
g57
(g58
g59
NtRp1455
(dp1456
g62
(dp1457
g70
I3
ssg71
g1451
sg64
(lp1458
S'2'
asbasbasbag57
(g73
g59
NtRp1459
(dp1460
g62
(dp1461
sg71
g1443
sg64
(lp1462
g57
(g78
g59
NtRp1463
(dp1464
g62
(dp1465
sg71
g1459
sg64
(lp1466
g57
(g58
g59
NtRp1467
(dp1468
g62
(dp1469
g70
I3
ssg71
g1463
sg64
(lp1470
S'3'
asbasbasbag57
(g73
g59
NtRp1471
(dp1472
g62
(dp1473
sg71
g1443
sg64
(lp1474
g57
(g78
g59
NtRp1475
(dp1476
g62
(dp1477
sg71
g1471
sg64
(lp1478
g57
(g58
g59
NtRp1479
(dp1480
g62
(dp1481
g70
I3
ssg71
g1475
sg64
(lp1482
S'2'
asbasbasbag57
(g73
g59
NtRp1483
(dp1484
g62
(dp1485
sg71
g1443
sg64
(lp1486
g57
(g78
g59
NtRp1487
(dp1488
g62
(dp1489
sg71
g1483
sg64
(lp1490
g57
(g58
g59
NtRp1491
(dp1492
g62
(dp1493
g70
I3
ssg71
g1487
sg64
(lp1494
S'datetime.datetime(2012, 12, 17, 15, 3, 30)'
p1495
asbasbasbag57
(g73
g59
NtRp1496
(dp1497
g62
(dp1498
sg71
g1443
sg64
(lp1499
g57
(g78
g59
NtRp1500
(dp1501
g62
(dp1502
sg71
g1496
sg64
(lp1503
g57
(g58
g59
NtRp1504
(dp1505
g62
(dp1506
g70
I3
ssg71
g1500
sg64
(lp1507
S'stable'
p1508
asbasbasbasbasbasbasbag57
(g73
g59
NtRp1509
(dp1510
g62
(dp1511
sg71
g673
sg64
(lp1512
g57
(g78
g59
NtRp1513
(dp1514
g62
(dp1515
g82
g83
ssg71
g1509
sg64
(lp1516
S'wsgi_errors'
p1517
asbag57
(g78
g59
NtRp1518
(dp1519
g62
(dp1520
g89
g90
ssg71
g1509
sg64
(lp1521
S':'
asbag57
(g78
g59
NtRp1522
(dp1523
g62
(dp1524
sg71
g1509
sg64
(lp1525
g57
(g58
g59
NtRp1526
(dp1527
g62
(dp1528
g70
I4
ssg71
g1522
sg64
(lp1529
S"<open file '<stderr>', mode 'w' at 0x00AD50D0>"
p1530
asbasbasbag57
(g73
g59
NtRp1531
(dp1532
g62
(dp1533
sg71
g673
sg64
(lp1534
g57
(g78
g59
NtRp1535
(dp1536
g62
(dp1537
g82
g83
ssg71
g1531
sg64
(lp1538
S'wsgi_file_wrapper'
p1539
asbag57
(g78
g59
NtRp1540
(dp1541
g62
(dp1542
g89
g90
ssg71
g1531
sg64
(lp1543
S':'
asbag57
(g78
g59
NtRp1544
(dp1545
g62
(dp1546
sg71
g1531
sg64
(lp1547
g57
(g58
g59
NtRp1548
(dp1549
g62
(dp1550
g70
I4
ssg71
g1544
sg64
(lp1551
S'<class wsgiref.util.FileWrapper at 0x01736C38>'
p1552
asbasbasbag57
(g73
g59
NtRp1553
(dp1554
g62
(dp1555
sg71
g673
sg64
(lp1556
g57
(g78
g59
NtRp1557
(dp1558
g62
(dp1559
g82
g83
ssg71
g1553
sg64
(lp1560
S'wsgi_input'
p1561
asbag57
(g78
g59
NtRp1562
(dp1563
g62
(dp1564
g89
g90
ssg71
g1553
sg64
(lp1565
S':'
asbag57
(g78
g59
NtRp1566
(dp1567
g62
(dp1568
sg71
g1553
sg64
(lp1569
g57
(g58
g59
NtRp1570
(dp1571
g62
(dp1572
g70
I4
ssg71
g1566
sg64
(lp1573
S'<socket._fileobject object at 0x05B67CF0>'
p1574
asbasbasbag57
(g73
g59
NtRp1575
(dp1576
g62
(dp1577
sg71
g673
sg64
(lp1578
g57
(g78
g59
NtRp1579
(dp1580
g62
(dp1581
g82
g83
ssg71
g1575
sg64
(lp1582
S'wsgi_multiprocess'
p1583
asbag57
(g78
g59
NtRp1584
(dp1585
g62
(dp1586
g89
g90
ssg71
g1575
sg64
(lp1587
S':'
asbag57
(g78
g59
NtRp1588
(dp1589
g62
(dp1590
sg71
g1575
sg64
(lp1591
g57
(g58
g59
NtRp1592
(dp1593
g62
(dp1594
g70
I4
ssg71
g1588
sg64
(lp1595
g100
asbasbasbag57
(g73
g59
NtRp1596
(dp1597
g62
(dp1598
sg71
g673
sg64
(lp1599
g57
(g78
g59
NtRp1600
(dp1601
g62
(dp1602
g82
g83
ssg71
g1596
sg64
(lp1603
S'wsgi_multithread'
p1604
asbag57
(g78
g59
NtRp1605
(dp1606
g62
(dp1607
g89
g90
ssg71
g1596
sg64
(lp1608
S':'
asbag57
(g78
g59
NtRp1609
(dp1610
g62
(dp1611
sg71
g1596
sg64
(lp1612
g57
(g58
g59
NtRp1613
(dp1614
g62
(dp1615
g70
I4
ssg71
g1609
sg64
(lp1616
S'True'
p1617
asbasbasbag57
(g73
g59
NtRp1618
(dp1619
g62
(dp1620
sg71
g673
sg64
(lp1621
g57
(g78
g59
NtRp1622
(dp1623
g62
(dp1624
g82
g83
ssg71
g1618
sg64
(lp1625
S'wsgi_run_once'
p1626
asbag57
(g78
g59
NtRp1627
(dp1628
g62
(dp1629
g89
g90
ssg71
g1618
sg64
(lp1630
S':'
asbag57
(g78
g59
NtRp1631
(dp1632
g62
(dp1633
sg71
g1618
sg64
(lp1634
g57
(g58
g59
NtRp1635
(dp1636
g62
(dp1637
g70
I4
ssg71
g1631
sg64
(lp1638
g100
asbasbasbag57
(g73
g59
NtRp1639
(dp1640
g62
(dp1641
sg71
g673
sg64
(lp1642
g57
(g78
g59
NtRp1643
(dp1644
g62
(dp1645
g82
g83
ssg71
g1639
sg64
(lp1646
S'wsgi_url_scheme'
p1647
asbag57
(g78
g59
NtRp1648
(dp1649
g62
(dp1650
g89
g90
ssg71
g1639
sg64
(lp1651
S':'
asbag57
(g78
g59
NtRp1652
(dp1653
g62
(dp1654
sg71
g1639
sg64
(lp1655
g57
(g58
g59
NtRp1656
(dp1657
g62
(dp1658
g70
I4
ssg71
g1652
sg64
(lp1659
S'http'
p1660
asbasbasbag57
(g73
g59
NtRp1661
(dp1662
g62
(dp1663
sg71
g673
sg64
(lp1664
g57
(g78
g59
NtRp1665
(dp1666
g62
(dp1667
g82
g83
ssg71
g1661
sg64
(lp1668
S'wsgi_version'
p1669
asbag57
(g78
g59
NtRp1670
(dp1671
g62
(dp1672
g89
g90
ssg71
g1661
sg64
(lp1673
S':'
asbag57
(g78
g59
NtRp1674
(dp1675
g62
(dp1676
sg71
g1661
sg64
(lp1677
g57
(g58
g59
NtRp1678
(dp1679
g62
(dp1680
g70
I4
ssg71
g1674
sg64
(lp1681
g57
(g66
g59
NtRp1682
(dp1683
g62
(dp1684
g70
I3
ssg71
Nsg64
(lp1685
g57
(g73
g59
NtRp1686
(dp1687
g62
(dp1688
sg71
g1682
sg64
(lp1689
g57
(g78
g59
NtRp1690
(dp1691
g62
(dp1692
sg71
g1686
sg64
(lp1693
g57
(g58
g59
NtRp1694
(dp1695
g62
(dp1696
g70
I3
ssg71
g1690
sg64
(lp1697
S'1'
asbasbasbag57
(g73
g59
NtRp1698
(dp1699
g62
(dp1700
sg71
g1682
sg64
(lp1701
g57
(g78
g59
NtRp1702
(dp1703
g62
(dp1704
sg71
g1698
sg64
(lp1705
g57
(g58
g59
NtRp1706
(dp1707
g62
(dp1708
g70
I3
ssg71
g1702
sg64
(lp1709
S'0'
asbasbasbasbasbasbasbasbasbasbasbag57
(g73
g59
NtRp1710
(dp1711
g62
(dp1712
sg71
g67
sg64
(lp1713
g57
(g78
g59
NtRp1714
(dp1715
g62
(dp1716
g82
g83
ssg71
g1710
sg64
(lp1717
S'extension'
p1718
asbag57
(g78
g59
NtRp1719
(dp1720
g62
(dp1721
g89
g90
ssg71
g1710
sg64
(lp1722
S':'
asbag57
(g78
g59
NtRp1723
(dp1724
g62
(dp1725
sg71
g1710
sg64
(lp1726
g57
(g58
g59
NtRp1727
(dp1728
g62
(dp1729
g70
I5
ssg71
g1723
sg64
(lp1730
S'html'
p1731
asbasbasbag57
(g73
g59
NtRp1732
(dp1733
g62
(dp1734
sg71
g67
sg64
(lp1735
g57
(g78
g59
NtRp1736
(dp1737
g62
(dp1738
g82
g83
ssg71
g1732
sg64
(lp1739
S'folder'
p1740
asbag57
(g78
g59
NtRp1741
(dp1742
g62
(dp1743
g89
g90
ssg71
g1732
sg64
(lp1744
S':'
asbag57
(g78
g59
NtRp1745
(dp1746
g62
(dp1747
sg71
g1732
sg64
(lp1748
g57
(g58
g59
NtRp1749
(dp1750
g62
(dp1751
g70
I5
ssg71
g1745
sg64
(lp1752
S'C:\\Python27\\web2py\\applications\\hw4\\'
p1753
asbasbasbag57
(g73
g59
NtRp1754
(dp1755
g62
(dp1756
sg71
g67
sg64
(lp1757
g57
(g78
g59
NtRp1758
(dp1759
g62
(dp1760
g82
g83
ssg71
g1754
sg64
(lp1761
S'function'
p1762
asbag57
(g78
g59
NtRp1763
(dp1764
g62
(dp1765
g89
g90
ssg71
g1754
sg64
(lp1766
S':'
asbag57
(g78
g59
NtRp1767
(dp1768
g62
(dp1769
sg71
g1754
sg64
(lp1770
g57
(g58
g59
NtRp1771
(dp1772
g62
(dp1773
g70
I5
ssg71
g1767
sg64
(lp1774
S'pigai'
p1775
asbasbasbag57
(g73
g59
NtRp1776
(dp1777
g62
(dp1778
sg71
g67
sg64
(lp1779
g57
(g78
g59
NtRp1780
(dp1781
g62
(dp1782
g82
g83
ssg71
g1776
sg64
(lp1783
S'get_vars'
p1784
asbag57
(g78
g59
NtRp1785
(dp1786
g62
(dp1787
g89
g90
ssg71
g1776
sg64
(lp1788
S':'
asbag57
(g78
g59
NtRp1789
(dp1790
g62
(dp1791
sg71
g1776
sg64
(lp1792
g57
(g58
g59
NtRp1793
(dp1794
g62
(dp1795
g70
I5
ssg71
g1789
sg64
(lp1796
g57
(g66
g59
NtRp1797
(dp1798
g62
(dp1799
g70
I4
ssg71
Nsg64
(lp1800
sbasbasbasbag57
(g73
g59
NtRp1801
(dp1802
g62
(dp1803
sg71
g67
sg64
(lp1804
g57
(g78
g59
NtRp1805
(dp1806
g62
(dp1807
g82
g83
ssg71
g1801
sg64
(lp1808
S'global_settings'
p1809
asbag57
(g78
g59
NtRp1810
(dp1811
g62
(dp1812
g89
g90
ssg71
g1801
sg64
(lp1813
S':'
asbag57
(g78
g59
NtRp1814
(dp1815
g62
(dp1816
sg71
g1801
sg64
(lp1817
g57
(g58
g59
NtRp1818
(dp1819
g62
(dp1820
g70
I5
ssg71
g1814
sg64
(lp1821
g57
(g66
g59
NtRp1822
(dp1823
g62
(dp1824
g70
I4
ssg71
Nsg64
(lp1825
g57
(g73
g59
NtRp1826
(dp1827
g62
(dp1828
sg71
g1822
sg64
(lp1829
g57
(g78
g59
NtRp1830
(dp1831
g62
(dp1832
g82
g83
ssg71
g1826
sg64
(lp1833
g685
asbag57
(g78
g59
NtRp1834
(dp1835
g62
(dp1836
g89
g90
ssg71
g1826
sg64
(lp1837
S':'
asbag57
(g78
g59
NtRp1838
(dp1839
g62
(dp1840
sg71
g1826
sg64
(lp1841
g57
(g58
g59
NtRp1842
(dp1843
g62
(dp1844
g70
I4
ssg71
g1838
sg64
(lp1845
S"set(['C:\\\\Python27\\\\web2py\\\\applications\\\\admin\\\\', 'C:\\\\Python27\\\\web2py\\\\applications\\\\welcome\\\\', 'C:\\\\Python27\\\\web2py\\\\applications\\\\hw4\\\\'])"
p1846
asbasbasbag57
(g73
g59
NtRp1847
(dp1848
g62
(dp1849
sg71
g1822
sg64
(lp1850
g57
(g78
g59
NtRp1851
(dp1852
g62
(dp1853
g82
g83
ssg71
g1847
sg64
(lp1854
g707
asbag57
(g78
g59
NtRp1855
(dp1856
g62
(dp1857
g89
g90
ssg71
g1847
sg64
(lp1858
S':'
asbag57
(g78
g59
NtRp1859
(dp1860
g62
(dp1861
sg71
g1847
sg64
(lp1862
g57
(g58
g59
NtRp1863
(dp1864
g62
(dp1865
g70
I4
ssg71
g1859
sg64
(lp1866
g720
asbasbasbag57
(g73
g59
NtRp1867
(dp1868
g62
(dp1869
sg71
g1822
sg64
(lp1870
g57
(g78
g59
NtRp1871
(dp1872
g62
(dp1873
g82
g83
ssg71
g1867
sg64
(lp1874
g729
asbag57
(g78
g59
NtRp1875
(dp1876
g62
(dp1877
g89
g90
ssg71
g1867
sg64
(lp1878
S':'
asbag57
(g78
g59
NtRp1879
(dp1880
g62
(dp1881
sg71
g1867
sg64
(lp1882
g57
(g58
g59
NtRp1883
(dp1884
g62
(dp1885
g70
I4
ssg71
g1879
sg64
(lp1886
g57
(g66
g59
NtRp1887
(dp1888
g62
(dp1889
g70
I3
ssg71
Nsg64
(lp1890
sbasbasbasbag57
(g73
g59
NtRp1891
(dp1892
g62
(dp1893
sg71
g1822
sg64
(lp1894
g57
(g78
g59
NtRp1895
(dp1896
g62
(dp1897
g82
g83
ssg71
g1891
sg64
(lp1898
g754
asbag57
(g78
g59
NtRp1899
(dp1900
g62
(dp1901
g89
g90
ssg71
g1891
sg64
(lp1902
S':'
asbag57
(g78
g59
NtRp1903
(dp1904
g62
(dp1905
sg71
g1891
sg64
(lp1906
g57
(g58
g59
NtRp1907
(dp1908
g62
(dp1909
g70
I4
ssg71
g1903
sg64
(lp1910
S"<Values at 0x17c00f8: {'verbose': False, 'ip': '127.0.0.1', 'with_scheduler': False, 'ips': ['192.168.1.101'], 'shutdown_timeout': 5, 'taskbar': False, 'port': 8000, 'maxthreads': None, 'softcron': False, 'server_name': 'FREESKYC-5359CC', 'bpython': False, 'nogui': False, 'pid_filename': 'httpserver.pid', 'extcron': False, 'runcron': False, 'run_system_tests': False, 'test': None, 'folder': 'C:\\\\Python27\\\\web2py', 'config': '', 'import_models': False, 'winservice': '', 'shell': None, 'run': '', 'log_filename': 'httpserver.log', 'debuglevel': 30, 'args': [''], 'socket_timeout': 5, 'ssl_ca_certificate': None, 'scheduler': None, 'profiler_filename': None, 'ssl_private_key': '', 'scheduler_groups': None, 'password': '<ask>', 'request_queue_size': 5, 'ssl_certificate': '', 'cronjob': False, 'numthreads': None, 'quiet': False, 'interfaces': None, 'minthreads': None, 'timeout': 10, 'plain': False, 'nobanner': False}>"
p1911
asbasbasbag57
(g73
g59
NtRp1912
(dp1913
g62
(dp1914
sg71
g1822
sg64
(lp1915
g57
(g78
g59
NtRp1916
(dp1917
g62
(dp1918
g82
g83
ssg71
g1912
sg64
(lp1919
g776
asbag57
(g78
g59
NtRp1920
(dp1921
g62
(dp1922
g89
g90
ssg71
g1912
sg64
(lp1923
S':'
asbag57
(g78
g59
NtRp1924
(dp1925
g62
(dp1926
sg71
g1912
sg64
(lp1927
g57
(g58
g59
NtRp1928
(dp1929
g62
(dp1930
g70
I4
ssg71
g1924
sg64
(lp1931
S'set([])'
p1932
asbasbasbag57
(g73
g59
NtRp1933
(dp1934
g62
(dp1935
sg71
g1822
sg64
(lp1936
g57
(g78
g59
NtRp1937
(dp1938
g62
(dp1939
g82
g83
ssg71
g1933
sg64
(lp1940
g798
asbag57
(g78
g59
NtRp1941
(dp1942
g62
(dp1943
g89
g90
ssg71
g1933
sg64
(lp1944
S':'
asbag57
(g78
g59
NtRp1945
(dp1946
g62
(dp1947
sg71
g1933
sg64
(lp1948
g57
(g58
g59
NtRp1949
(dp1950
g62
(dp1951
g70
I4
ssg71
g1945
sg64
(lp1952
g100
asbasbasbag57
(g73
g59
NtRp1953
(dp1954
g62
(dp1955
sg71
g1822
sg64
(lp1956
g57
(g78
g59
NtRp1957
(dp1958
g62
(dp1959
g82
g83
ssg71
g1953
sg64
(lp1960
g819
asbag57
(g78
g59
NtRp1961
(dp1962
g62
(dp1963
g89
g90
ssg71
g1953
sg64
(lp1964
S':'
asbag57
(g78
g59
NtRp1965
(dp1966
g62
(dp1967
sg71
g1953
sg64
(lp1968
g57
(g58
g59
NtRp1969
(dp1970
g62
(dp1971
g70
I4
ssg71
g1965
sg64
(lp1972
g832
asbasbasbag57
(g73
g59
NtRp1973
(dp1974
g62
(dp1975
sg71
g1822
sg64
(lp1976
g57
(g78
g59
NtRp1977
(dp1978
g62
(dp1979
g82
g83
ssg71
g1973
sg64
(lp1980
g1039
asbag57
(g78
g59
NtRp1981
(dp1982
g62
(dp1983
g89
g90
ssg71
g1973
sg64
(lp1984
S':'
asbag57
(g78
g59
NtRp1985
(dp1986
g62
(dp1987
sg71
g1973
sg64
(lp1988
g57
(g58
g59
NtRp1989
(dp1990
g62
(dp1991
g70
I4
ssg71
g1985
sg64
(lp1992
g100
asbasbasbag57
(g73
g59
NtRp1993
(dp1994
g62
(dp1995
sg71
g1822
sg64
(lp1996
g57
(g78
g59
NtRp1997
(dp1998
g62
(dp1999
g82
g83
ssg71
g1993
sg64
(lp2000
g1060
asbag57
(g78
g59
NtRp2001
(dp2002
g62
(dp2003
g89
g90
ssg71
g1993
sg64
(lp2004
S':'
asbag57
(g78
g59
NtRp2005
(dp2006
g62
(dp2007
sg71
g1993
sg64
(lp2008
g57
(g58
g59
NtRp2009
(dp2010
g62
(dp2011
g70
I4
ssg71
g2005
sg64
(lp2012
g100
asbasbasbag57
(g73
g59
NtRp2013
(dp2014
g62
(dp2015
sg71
g1822
sg64
(lp2016
g57
(g78
g59
NtRp2017
(dp2018
g62
(dp2019
g82
g83
ssg71
g2013
sg64
(lp2020
g1081
asbag57
(g78
g59
NtRp2021
(dp2022
g62
(dp2023
g89
g90
ssg71
g2013
sg64
(lp2024
S':'
asbag57
(g78
g59
NtRp2025
(dp2026
g62
(dp2027
sg71
g2013
sg64
(lp2028
g57
(g58
g59
NtRp2029
(dp2030
g62
(dp2031
g70
I4
ssg71
g2025
sg64
(lp2032
g57
(g66
g59
NtRp2033
(dp2034
g62
(dp2035
g70
I3
ssg71
Nsg64
(lp2036
g57
(g73
g59
NtRp2037
(dp2038
g62
(dp2039
sg71
g2033
sg64
(lp2040
g57
(g78
g59
NtRp2041
(dp2042
g62
(dp2043
sg71
g2037
sg64
(lp2044
g57
(g58
g59
NtRp2045
(dp2046
g62
(dp2047
g70
I3
ssg71
g2041
sg64
(lp2048
g1110
asbasbasbag57
(g73
g59
NtRp2049
(dp2050
g62
(dp2051
sg71
g2033
sg64
(lp2052
g57
(g78
g59
NtRp2053
(dp2054
g62
(dp2055
sg71
g2049
sg64
(lp2056
g57
(g58
g59
NtRp2057
(dp2058
g62
(dp2059
g70
I3
ssg71
g2053
sg64
(lp2060
g1123
asbasbasbag57
(g73
g59
NtRp2061
(dp2062
g62
(dp2063
sg71
g2033
sg64
(lp2064
g57
(g78
g59
NtRp2065
(dp2066
g62
(dp2067
sg71
g2061
sg64
(lp2068
g57
(g58
g59
NtRp2069
(dp2070
g62
(dp2071
g70
I3
ssg71
g2065
sg64
(lp2072
g1136
asbasbasbag57
(g73
g59
NtRp2073
(dp2074
g62
(dp2075
sg71
g2033
sg64
(lp2076
g57
(g78
g59
NtRp2077
(dp2078
g62
(dp2079
sg71
g2073
sg64
(lp2080
g57
(g58
g59
NtRp2081
(dp2082
g62
(dp2083
g70
I3
ssg71
g2077
sg64
(lp2084
g1149
asbasbasbag57
(g73
g59
NtRp2085
(dp2086
g62
(dp2087
sg71
g2033
sg64
(lp2088
g57
(g78
g59
NtRp2089
(dp2090
g62
(dp2091
sg71
g2085
sg64
(lp2092
g57
(g58
g59
NtRp2093
(dp2094
g62
(dp2095
g70
I3
ssg71
g2089
sg64
(lp2096
g1162
asbasbasbasbasbasbasbag57
(g73
g59
NtRp2097
(dp2098
g62
(dp2099
sg71
g1822
sg64
(lp2100
g57
(g78
g59
NtRp2101
(dp2102
g62
(dp2103
g82
g83
ssg71
g2097
sg64
(lp2104
g1430
asbag57
(g78
g59
NtRp2105
(dp2106
g62
(dp2107
g89
g90
ssg71
g2097
sg64
(lp2108
S':'
asbag57
(g78
g59
NtRp2109
(dp2110
g62
(dp2111
sg71
g2097
sg64
(lp2112
g57
(g58
g59
NtRp2113
(dp2114
g62
(dp2115
g70
I4
ssg71
g2109
sg64
(lp2116
g57
(g66
g59
NtRp2117
(dp2118
g62
(dp2119
g70
I3
ssg71
Nsg64
(lp2120
g57
(g73
g59
NtRp2121
(dp2122
g62
(dp2123
sg71
g2117
sg64
(lp2124
g57
(g78
g59
NtRp2125
(dp2126
g62
(dp2127
sg71
g2121
sg64
(lp2128
g57
(g58
g59
NtRp2129
(dp2130
g62
(dp2131
g70
I3
ssg71
g2125
sg64
(lp2132
S'2'
asbasbasbag57
(g73
g59
NtRp2133
(dp2134
g62
(dp2135
sg71
g2117
sg64
(lp2136
g57
(g78
g59
NtRp2137
(dp2138
g62
(dp2139
sg71
g2133
sg64
(lp2140
g57
(g58
g59
NtRp2141
(dp2142
g62
(dp2143
g70
I3
ssg71
g2137
sg64
(lp2144
S'3'
asbasbasbag57
(g73
g59
NtRp2145
(dp2146
g62
(dp2147
sg71
g2117
sg64
(lp2148
g57
(g78
g59
NtRp2149
(dp2150
g62
(dp2151
sg71
g2145
sg64
(lp2152
g57
(g58
g59
NtRp2153
(dp2154
g62
(dp2155
g70
I3
ssg71
g2149
sg64
(lp2156
S'2'
asbasbasbag57
(g73
g59
NtRp2157
(dp2158
g62
(dp2159
sg71
g2117
sg64
(lp2160
g57
(g78
g59
NtRp2161
(dp2162
g62
(dp2163
sg71
g2157
sg64
(lp2164
g57
(g58
g59
NtRp2165
(dp2166
g62
(dp2167
g70
I3
ssg71
g2161
sg64
(lp2168
S'datetime.datetime(2012, 12, 17, 15, 3, 30)'
p2169
asbasbasbag57
(g73
g59
NtRp2170
(dp2171
g62
(dp2172
sg71
g2117
sg64
(lp2173
g57
(g78
g59
NtRp2174
(dp2175
g62
(dp2176
sg71
g2170
sg64
(lp2177
g57
(g58
g59
NtRp2178
(dp2179
g62
(dp2180
g70
I3
ssg71
g2174
sg64
(lp2181
g1508
asbasbasbasbasbasbasbasbasbasbasbag57
(g73
g59
NtRp2182
(dp2183
g62
(dp2184
sg71
g67
sg64
(lp2185
g57
(g78
g59
NtRp2186
(dp2187
g62
(dp2188
g82
g83
ssg71
g2182
sg64
(lp2189
S'is_https'
p2190
asbag57
(g78
g59
NtRp2191
(dp2192
g62
(dp2193
g89
g90
ssg71
g2182
sg64
(lp2194
S':'
asbag57
(g78
g59
NtRp2195
(dp2196
g62
(dp2197
sg71
g2182
sg64
(lp2198
g57
(g58
g59
NtRp2199
(dp2200
g62
(dp2201
g70
I5
ssg71
g2195
sg64
(lp2202
g100
asbasbasbag57
(g73
g59
NtRp2203
(dp2204
g62
(dp2205
sg71
g67
sg64
(lp2206
g57
(g78
g59
NtRp2207
(dp2208
g62
(dp2209
g82
g83
ssg71
g2203
sg64
(lp2210
S'is_local'
p2211
asbag57
(g78
g59
NtRp2212
(dp2213
g62
(dp2214
g89
g90
ssg71
g2203
sg64
(lp2215
S':'
asbag57
(g78
g59
NtRp2216
(dp2217
g62
(dp2218
sg71
g2203
sg64
(lp2219
g57
(g58
g59
NtRp2220
(dp2221
g62
(dp2222
g70
I5
ssg71
g2216
sg64
(lp2223
g1617
asbasbasbag57
(g73
g59
NtRp2224
(dp2225
g62
(dp2226
sg71
g67
sg64
(lp2227
g57
(g78
g59
NtRp2228
(dp2229
g62
(dp2230
g82
g83
ssg71
g2224
sg64
(lp2231
S'is_restful'
p2232
asbag57
(g78
g59
NtRp2233
(dp2234
g62
(dp2235
g89
g90
ssg71
g2224
sg64
(lp2236
S':'
asbag57
(g78
g59
NtRp2237
(dp2238
g62
(dp2239
sg71
g2224
sg64
(lp2240
g57
(g58
g59
NtRp2241
(dp2242
g62
(dp2243
g70
I5
ssg71
g2237
sg64
(lp2244
g100
asbasbasbag57
(g73
g59
NtRp2245
(dp2246
g62
(dp2247
sg71
g67
sg64
(lp2248
g57
(g78
g59
NtRp2249
(dp2250
g62
(dp2251
g82
g83
ssg71
g2245
sg64
(lp2252
S'now'
p2253
asbag57
(g78
g59
NtRp2254
(dp2255
g62
(dp2256
g89
g90
ssg71
g2245
sg64
(lp2257
S':'
asbag57
(g78
g59
NtRp2258
(dp2259
g62
(dp2260
sg71
g2245
sg64
(lp2261
g57
(g58
g59
NtRp2262
(dp2263
g62
(dp2264
g70
I5
ssg71
g2258
sg64
(lp2265
S'datetime.datetime(2013, 9, 1, 13, 33, 23, 250000)'
p2266
asbasbasbag57
(g73
g59
NtRp2267
(dp2268
g62
(dp2269
sg71
g67
sg64
(lp2270
g57
(g78
g59
NtRp2271
(dp2272
g62
(dp2273
g82
g83
ssg71
g2267
sg64
(lp2274
S'post_vars'
p2275
asbag57
(g78
g59
NtRp2276
(dp2277
g62
(dp2278
g89
g90
ssg71
g2267
sg64
(lp2279
S':'
asbag57
(g78
g59
NtRp2280
(dp2281
g62
(dp2282
sg71
g2267
sg64
(lp2283
g57
(g58
g59
NtRp2284
(dp2285
g62
(dp2286
g70
I5
ssg71
g2280
sg64
(lp2287
g57
(g66
g59
NtRp2288
(dp2289
g62
(dp2290
g70
I4
ssg71
Nsg64
(lp2291
sbasbasbasbag57
(g73
g59
NtRp2292
(dp2293
g62
(dp2294
sg71
g67
sg64
(lp2295
g57
(g78
g59
NtRp2296
(dp2297
g62
(dp2298
g82
g83
ssg71
g2292
sg64
(lp2299
S'raw_args'
p2300
asbag57
(g78
g59
NtRp2301
(dp2302
g62
(dp2303
g89
g90
ssg71
g2292
sg64
(lp2304
S':'
asbag57
(g78
g59
NtRp2305
(dp2306
g62
(dp2307
sg71
g2292
sg64
(lp2308
g57
(g58
g59
NtRp2309
(dp2310
g62
(dp2311
g70
I5
ssg71
g2305
sg64
(lp2312
S'1'
asbasbasbag57
(g73
g59
NtRp2313
(dp2314
g62
(dp2315
sg71
g67
sg64
(lp2316
g57
(g78
g59
NtRp2317
(dp2318
g62
(dp2319
g82
g83
ssg71
g2313
sg64
(lp2320
S'raw_extension'
p2321
asbag57
(g78
g59
NtRp2322
(dp2323
g62
(dp2324
g89
g90
ssg71
g2313
sg64
(lp2325
S':'
asbag57
(g78
g59
NtRp2326
(dp2327
g62
(dp2328
sg71
g2313
sg64
(lp2329
g57
(g58
g59
NtRp2330
(dp2331
g62
(dp2332
g70
I5
ssg71
g2326
sg64
(lp2333
S'None'
p2334
asbasbasbag57
(g73
g59
NtRp2335
(dp2336
g62
(dp2337
sg71
g67
sg64
(lp2338
g57
(g78
g59
NtRp2339
(dp2340
g62
(dp2341
g82
g83
ssg71
g2335
sg64
(lp2342
S'url'
p2343
asbag57
(g78
g59
NtRp2344
(dp2345
g62
(dp2346
g89
g90
ssg71
g2335
sg64
(lp2347
S':'
asbag57
(g78
g59
NtRp2348
(dp2349
g62
(dp2350
sg71
g2335
sg64
(lp2351
g57
(g58
g59
NtRp2352
(dp2353
g62
(dp2354
g70
I5
ssg71
g2348
sg64
(lp2355
g1184
asbasbasbag57
(g73
g59
NtRp2356
(dp2357
g62
(dp2358
sg71
g67
sg64
(lp2359
g57
(g78
g59
NtRp2360
(dp2361
g62
(dp2362
g82
g83
ssg71
g2356
sg64
(lp2363
S'utcnow'
p2364
asbag57
(g78
g59
NtRp2365
(dp2366
g62
(dp2367
g89
g90
ssg71
g2356
sg64
(lp2368
S':'
asbag57
(g78
g59
NtRp2369
(dp2370
g62
(dp2371
sg71
g2356
sg64
(lp2372
g57
(g58
g59
NtRp2373
(dp2374
g62
(dp2375
g70
I5
ssg71
g2369
sg64
(lp2376
S'datetime.datetime(2013, 9, 1, 5, 33, 23, 250000)'
p2377
asbasbasbag57
(g73
g59
NtRp2378
(dp2379
g62
(dp2380
sg71
g67
sg64
(lp2381
g57
(g78
g59
NtRp2382
(dp2383
g62
(dp2384
g82
g83
ssg71
g2378
sg64
(lp2385
S'uuid'
p2386
asbag57
(g78
g59
NtRp2387
(dp2388
g62
(dp2389
g89
g90
ssg71
g2378
sg64
(lp2390
S':'
asbag57
(g78
g59
NtRp2391
(dp2392
g62
(dp2393
sg71
g2378
sg64
(lp2394
g57
(g58
g59
NtRp2395
(dp2396
g62
(dp2397
g70
I5
ssg71
g2391
sg64
(lp2398
S'hw4/127.0.0.1.2013-09-01.13-33-23.c34807eb-2221-406e-b313-4d10ce0cae17'
p2399
asbasbasbag57
(g73
g59
NtRp2400
(dp2401
g62
(dp2402
sg71
g67
sg64
(lp2403
g57
(g78
g59
NtRp2404
(dp2405
g62
(dp2406
g82
g83
ssg71
g2400
sg64
(lp2407
S'vars'
p2408
asbag57
(g78
g59
NtRp2409
(dp2410
g62
(dp2411
g89
g90
ssg71
g2400
sg64
(lp2412
S':'
asbag57
(g78
g59
NtRp2413
(dp2414
g62
(dp2415
sg71
g2400
sg64
(lp2416
g57
(g58
g59
NtRp2417
(dp2418
g62
(dp2419
g70
I5
ssg71
g2413
sg64
(lp2420
g57
(g66
g59
NtRp2421
(dp2422
g62
(dp2423
g70
I4
ssg71
Nsg64
(lp2424
sbasbasbasbag57
(g73
g59
NtRp2425
(dp2426
g62
(dp2427
sg71
g67
sg64
(lp2428
g57
(g78
g59
NtRp2429
(dp2430
g62
(dp2431
g82
g83
ssg71
g2425
sg64
(lp2432
S'wsgi'
p2433
asbag57
(g78
g59
NtRp2434
(dp2435
g62
(dp2436
g89
g90
ssg71
g2425
sg64
(lp2437
S':'
asbag57
(g78
g59
NtRp2438
(dp2439
g62
(dp2440
sg71
g2425
sg64
(lp2441
g57
(g58
g59
NtRp2442
(dp2443
g62
(dp2444
g70
I5
ssg71
g2438
sg64
(lp2445
g57
(g66
g59
NtRp2446
(dp2447
g62
(dp2448
g70
I4
ssg71
Nsg64
(lp2449
g57
(g73
g59
NtRp2450
(dp2451
g62
(dp2452
sg71
g2446
sg64
(lp2453
g57
(g78
g59
NtRp2454
(dp2455
g62
(dp2456
g82
g83
ssg71
g2450
sg64
(lp2457
S'environ'
p2458
asbag57
(g78
g59
NtRp2459
(dp2460
g62
(dp2461
g89
g90
ssg71
g2450
sg64
(lp2462
S':'
asbag57
(g78
g59
NtRp2463
(dp2464
g62
(dp2465
sg71
g2450
sg64
(lp2466
g57
(g58
g59
NtRp2467
(dp2468
g62
(dp2469
g70
I4
ssg71
g2463
sg64
(lp2470
g57
(g66
g59
NtRp2471
(dp2472
g62
(dp2473
g70
I3
ssg71
Nsg64
(lp2474
g57
(g73
g59
NtRp2475
(dp2476
g62
(dp2477
sg71
g2471
sg64
(lp2478
g57
(g78
g59
NtRp2479
(dp2480
g62
(dp2481
g82
g83
ssg71
g2475
sg64
(lp2482
S'HTTP_ACCEPT'
p2483
asbag57
(g78
g59
NtRp2484
(dp2485
g62
(dp2486
g89
g90
ssg71
g2475
sg64
(lp2487
S':'
asbag57
(g78
g59
NtRp2488
(dp2489
g62
(dp2490
sg71
g2475
sg64
(lp2491
g57
(g58
g59
NtRp2492
(dp2493
g62
(dp2494
g70
I3
ssg71
g2488
sg64
(lp2495
g854
asbasbasbag57
(g73
g59
NtRp2496
(dp2497
g62
(dp2498
sg71
g2471
sg64
(lp2499
g57
(g78
g59
NtRp2500
(dp2501
g62
(dp2502
g82
g83
ssg71
g2496
sg64
(lp2503
S'HTTP_ACCEPT_CHARSET'
p2504
asbag57
(g78
g59
NtRp2505
(dp2506
g62
(dp2507
g89
g90
ssg71
g2496
sg64
(lp2508
S':'
asbag57
(g78
g59
NtRp2509
(dp2510
g62
(dp2511
sg71
g2496
sg64
(lp2512
g57
(g58
g59
NtRp2513
(dp2514
g62
(dp2515
g70
I3
ssg71
g2509
sg64
(lp2516
g876
asbasbasbag57
(g73
g59
NtRp2517
(dp2518
g62
(dp2519
sg71
g2471
sg64
(lp2520
g57
(g78
g59
NtRp2521
(dp2522
g62
(dp2523
g82
g83
ssg71
g2517
sg64
(lp2524
S'HTTP_ACCEPT_ENCODING'
p2525
asbag57
(g78
g59
NtRp2526
(dp2527
g62
(dp2528
g89
g90
ssg71
g2517
sg64
(lp2529
S':'
asbag57
(g78
g59
NtRp2530
(dp2531
g62
(dp2532
sg71
g2517
sg64
(lp2533
g57
(g58
g59
NtRp2534
(dp2535
g62
(dp2536
g70
I3
ssg71
g2530
sg64
(lp2537
g898
asbasbasbag57
(g73
g59
NtRp2538
(dp2539
g62
(dp2540
sg71
g2471
sg64
(lp2541
g57
(g78
g59
NtRp2542
(dp2543
g62
(dp2544
g82
g83
ssg71
g2538
sg64
(lp2545
S'HTTP_ACCEPT_LANGUAGE'
p2546
asbag57
(g78
g59
NtRp2547
(dp2548
g62
(dp2549
g89
g90
ssg71
g2538
sg64
(lp2550
S':'
asbag57
(g78
g59
NtRp2551
(dp2552
g62
(dp2553
sg71
g2538
sg64
(lp2554
g57
(g58
g59
NtRp2555
(dp2556
g62
(dp2557
g70
I3
ssg71
g2551
sg64
(lp2558
g920
asbasbasbag57
(g73
g59
NtRp2559
(dp2560
g62
(dp2561
sg71
g2471
sg64
(lp2562
g57
(g78
g59
NtRp2563
(dp2564
g62
(dp2565
g82
g83
ssg71
g2559
sg64
(lp2566
S'HTTP_CONNECTION'
p2567
asbag57
(g78
g59
NtRp2568
(dp2569
g62
(dp2570
g89
g90
ssg71
g2559
sg64
(lp2571
S':'
asbag57
(g78
g59
NtRp2572
(dp2573
g62
(dp2574
sg71
g2559
sg64
(lp2575
g57
(g58
g59
NtRp2576
(dp2577
g62
(dp2578
g70
I3
ssg71
g2572
sg64
(lp2579
g942
asbasbasbag57
(g73
g59
NtRp2580
(dp2581
g62
(dp2582
sg71
g2471
sg64
(lp2583
g57
(g78
g59
NtRp2584
(dp2585
g62
(dp2586
g82
g83
ssg71
g2580
sg64
(lp2587
S'HTTP_COOKIE'
p2588
asbag57
(g78
g59
NtRp2589
(dp2590
g62
(dp2591
g89
g90
ssg71
g2580
sg64
(lp2592
S':'
asbag57
(g78
g59
NtRp2593
(dp2594
g62
(dp2595
sg71
g2580
sg64
(lp2596
g57
(g58
g59
NtRp2597
(dp2598
g62
(dp2599
g70
I3
ssg71
g2593
sg64
(lp2600
g964
asbasbasbag57
(g73
g59
NtRp2601
(dp2602
g62
(dp2603
sg71
g2471
sg64
(lp2604
g57
(g78
g59
NtRp2605
(dp2606
g62
(dp2607
g82
g83
ssg71
g2601
sg64
(lp2608
S'HTTP_HOST'
p2609
asbag57
(g78
g59
NtRp2610
(dp2611
g62
(dp2612
g89
g90
ssg71
g2601
sg64
(lp2613
S':'
asbag57
(g78
g59
NtRp2614
(dp2615
g62
(dp2616
sg71
g2601
sg64
(lp2617
g57
(g58
g59
NtRp2618
(dp2619
g62
(dp2620
g70
I3
ssg71
g2614
sg64
(lp2621
g986
asbasbasbag57
(g73
g59
NtRp2622
(dp2623
g62
(dp2624
sg71
g2471
sg64
(lp2625
g57
(g78
g59
NtRp2626
(dp2627
g62
(dp2628
g82
g83
ssg71
g2622
sg64
(lp2629
S'HTTP_REFERER'
p2630
asbag57
(g78
g59
NtRp2631
(dp2632
g62
(dp2633
g89
g90
ssg71
g2622
sg64
(lp2634
S':'
asbag57
(g78
g59
NtRp2635
(dp2636
g62
(dp2637
sg71
g2622
sg64
(lp2638
g57
(g58
g59
NtRp2639
(dp2640
g62
(dp2641
g70
I3
ssg71
g2635
sg64
(lp2642
g1008
asbasbasbag57
(g73
g59
NtRp2643
(dp2644
g62
(dp2645
sg71
g2471
sg64
(lp2646
g57
(g78
g59
NtRp2647
(dp2648
g62
(dp2649
g82
g83
ssg71
g2643
sg64
(lp2650
S'HTTP_USER_AGENT'
p2651
asbag57
(g78
g59
NtRp2652
(dp2653
g62
(dp2654
g89
g90
ssg71
g2643
sg64
(lp2655
S':'
asbag57
(g78
g59
NtRp2656
(dp2657
g62
(dp2658
sg71
g2643
sg64
(lp2659
g57
(g58
g59
NtRp2660
(dp2661
g62
(dp2662
g70
I3
ssg71
g2656
sg64
(lp2663
g1030
asbasbasbag57
(g73
g59
NtRp2664
(dp2665
g62
(dp2666
sg71
g2471
sg64
(lp2667
g57
(g78
g59
NtRp2668
(dp2669
g62
(dp2670
g82
g83
ssg71
g2664
sg64
(lp2671
S'PATH_INFO'
p2672
asbag57
(g78
g59
NtRp2673
(dp2674
g62
(dp2675
g89
g90
ssg71
g2664
sg64
(lp2676
S':'
asbag57
(g78
g59
NtRp2677
(dp2678
g62
(dp2679
sg71
g2664
sg64
(lp2680
g57
(g58
g59
NtRp2681
(dp2682
g62
(dp2683
g70
I3
ssg71
g2677
sg64
(lp2684
g1184
asbasbasbag57
(g73
g59
NtRp2685
(dp2686
g62
(dp2687
sg71
g2471
sg64
(lp2688
g57
(g78
g59
NtRp2689
(dp2690
g62
(dp2691
g82
g83
ssg71
g2685
sg64
(lp2692
S'QUERY_STRING'
p2693
asbag57
(g78
g59
NtRp2694
(dp2695
g62
(dp2696
g89
g90
ssg71
g2685
sg64
(lp2697
S':'
asbag57
(g78
g59
NtRp2698
(dp2699
g62
(dp2700
sg71
g2685
sg64
(lp2701
g57
(g58
g59
NtRp2702
(dp2703
g62
(dp2704
g70
I3
ssg71
g2698
sg64
(lp2705
S''
asbasbasbag57
(g73
g59
NtRp2706
(dp2707
g62
(dp2708
sg71
g2471
sg64
(lp2709
g57
(g78
g59
NtRp2710
(dp2711
g62
(dp2712
g82
g83
ssg71
g2706
sg64
(lp2713
S'REMOTE_ADDR'
p2714
asbag57
(g78
g59
NtRp2715
(dp2716
g62
(dp2717
g89
g90
ssg71
g2706
sg64
(lp2718
S':'
asbag57
(g78
g59
NtRp2719
(dp2720
g62
(dp2721
sg71
g2706
sg64
(lp2722
g57
(g58
g59
NtRp2723
(dp2724
g62
(dp2725
g70
I3
ssg71
g2719
sg64
(lp2726
g224
asbasbasbag57
(g73
g59
NtRp2727
(dp2728
g62
(dp2729
sg71
g2471
sg64
(lp2730
g57
(g78
g59
NtRp2731
(dp2732
g62
(dp2733
g82
g83
ssg71
g2727
sg64
(lp2734
S'REMOTE_PORT'
p2735
asbag57
(g78
g59
NtRp2736
(dp2737
g62
(dp2738
g89
g90
ssg71
g2727
sg64
(lp2739
S':'
asbag57
(g78
g59
NtRp2740
(dp2741
g62
(dp2742
sg71
g2727
sg64
(lp2743
g57
(g58
g59
NtRp2744
(dp2745
g62
(dp2746
g70
I3
ssg71
g2740
sg64
(lp2747
g1248
asbasbasbag57
(g73
g59
NtRp2748
(dp2749
g62
(dp2750
sg71
g2471
sg64
(lp2751
g57
(g78
g59
NtRp2752
(dp2753
g62
(dp2754
g82
g83
ssg71
g2748
sg64
(lp2755
S'REQUEST_METHOD'
p2756
asbag57
(g78
g59
NtRp2757
(dp2758
g62
(dp2759
g89
g90
ssg71
g2748
sg64
(lp2760
S':'
asbag57
(g78
g59
NtRp2761
(dp2762
g62
(dp2763
sg71
g2748
sg64
(lp2764
g57
(g58
g59
NtRp2765
(dp2766
g62
(dp2767
g70
I3
ssg71
g2761
sg64
(lp2768
g1270
asbasbasbag57
(g73
g59
NtRp2769
(dp2770
g62
(dp2771
sg71
g2471
sg64
(lp2772
g57
(g78
g59
NtRp2773
(dp2774
g62
(dp2775
g82
g83
ssg71
g2769
sg64
(lp2776
S'REQUEST_URI'
p2777
asbag57
(g78
g59
NtRp2778
(dp2779
g62
(dp2780
g89
g90
ssg71
g2769
sg64
(lp2781
S':'
asbag57
(g78
g59
NtRp2782
(dp2783
g62
(dp2784
sg71
g2769
sg64
(lp2785
g57
(g58
g59
NtRp2786
(dp2787
g62
(dp2788
g70
I3
ssg71
g2782
sg64
(lp2789
g1184
asbasbasbag57
(g73
g59
NtRp2790
(dp2791
g62
(dp2792
sg71
g2471
sg64
(lp2793
g57
(g78
g59
NtRp2794
(dp2795
g62
(dp2796
g82
g83
ssg71
g2790
sg64
(lp2797
S'SCRIPT_NAME'
p2798
asbag57
(g78
g59
NtRp2799
(dp2800
g62
(dp2801
g89
g90
ssg71
g2790
sg64
(lp2802
S':'
asbag57
(g78
g59
NtRp2803
(dp2804
g62
(dp2805
sg71
g2790
sg64
(lp2806
g57
(g58
g59
NtRp2807
(dp2808
g62
(dp2809
g70
I3
ssg71
g2803
sg64
(lp2810
S''
asbasbasbag57
(g73
g59
NtRp2811
(dp2812
g62
(dp2813
sg71
g2471
sg64
(lp2814
g57
(g78
g59
NtRp2815
(dp2816
g62
(dp2817
g82
g83
ssg71
g2811
sg64
(lp2818
S'SERVER_NAME'
p2819
asbag57
(g78
g59
NtRp2820
(dp2821
g62
(dp2822
g89
g90
ssg71
g2811
sg64
(lp2823
S':'
asbag57
(g78
g59
NtRp2824
(dp2825
g62
(dp2826
sg71
g2811
sg64
(lp2827
g57
(g58
g59
NtRp2828
(dp2829
g62
(dp2830
g70
I3
ssg71
g2824
sg64
(lp2831
g1334
asbasbasbag57
(g73
g59
NtRp2832
(dp2833
g62
(dp2834
sg71
g2471
sg64
(lp2835
g57
(g78
g59
NtRp2836
(dp2837
g62
(dp2838
g82
g83
ssg71
g2832
sg64
(lp2839
S'SERVER_PORT'
p2840
asbag57
(g78
g59
NtRp2841
(dp2842
g62
(dp2843
g89
g90
ssg71
g2832
sg64
(lp2844
S':'
asbag57
(g78
g59
NtRp2845
(dp2846
g62
(dp2847
sg71
g2832
sg64
(lp2848
g57
(g58
g59
NtRp2849
(dp2850
g62
(dp2851
g70
I3
ssg71
g2845
sg64
(lp2852
g1356
asbasbasbag57
(g73
g59
NtRp2853
(dp2854
g62
(dp2855
sg71
g2471
sg64
(lp2856
g57
(g78
g59
NtRp2857
(dp2858
g62
(dp2859
g82
g83
ssg71
g2853
sg64
(lp2860
S'SERVER_PROTOCOL'
p2861
asbag57
(g78
g59
NtRp2862
(dp2863
g62
(dp2864
g89
g90
ssg71
g2853
sg64
(lp2865
S':'
asbag57
(g78
g59
NtRp2866
(dp2867
g62
(dp2868
sg71
g2853
sg64
(lp2869
g57
(g58
g59
NtRp2870
(dp2871
g62
(dp2872
g70
I3
ssg71
g2866
sg64
(lp2873
g1378
asbasbasbag57
(g73
g59
NtRp2874
(dp2875
g62
(dp2876
sg71
g2471
sg64
(lp2877
g57
(g78
g59
NtRp2878
(dp2879
g62
(dp2880
g82
g83
ssg71
g2874
sg64
(lp2881
S'SERVER_SOFTWARE'
p2882
asbag57
(g78
g59
NtRp2883
(dp2884
g62
(dp2885
g89
g90
ssg71
g2874
sg64
(lp2886
S':'
asbag57
(g78
g59
NtRp2887
(dp2888
g62
(dp2889
sg71
g2874
sg64
(lp2890
g57
(g58
g59
NtRp2891
(dp2892
g62
(dp2893
g70
I3
ssg71
g2887
sg64
(lp2894
g1400
asbasbasbag57
(g73
g59
NtRp2895
(dp2896
g62
(dp2897
sg71
g2471
sg64
(lp2898
g57
(g78
g59
NtRp2899
(dp2900
g62
(dp2901
g82
g83
ssg71
g2895
sg64
(lp2902
S'wsgi.errors'
p2903
asbag57
(g78
g59
NtRp2904
(dp2905
g62
(dp2906
g89
g90
ssg71
g2895
sg64
(lp2907
S':'
asbag57
(g78
g59
NtRp2908
(dp2909
g62
(dp2910
sg71
g2895
sg64
(lp2911
g57
(g58
g59
NtRp2912
(dp2913
g62
(dp2914
g70
I3
ssg71
g2908
sg64
(lp2915
S"<open file '<stderr>', mode 'w' at 0x00AD50D0>"
p2916
asbasbasbag57
(g73
g59
NtRp2917
(dp2918
g62
(dp2919
sg71
g2471
sg64
(lp2920
g57
(g78
g59
NtRp2921
(dp2922
g62
(dp2923
g82
g83
ssg71
g2917
sg64
(lp2924
S'wsgi.file_wrapper'
p2925
asbag57
(g78
g59
NtRp2926
(dp2927
g62
(dp2928
g89
g90
ssg71
g2917
sg64
(lp2929
S':'
asbag57
(g78
g59
NtRp2930
(dp2931
g62
(dp2932
sg71
g2917
sg64
(lp2933
g57
(g58
g59
NtRp2934
(dp2935
g62
(dp2936
g70
I3
ssg71
g2930
sg64
(lp2937
S'<class wsgiref.util.FileWrapper at 0x01736C38>'
p2938
asbasbasbag57
(g73
g59
NtRp2939
(dp2940
g62
(dp2941
sg71
g2471
sg64
(lp2942
g57
(g78
g59
NtRp2943
(dp2944
g62
(dp2945
g82
g83
ssg71
g2939
sg64
(lp2946
S'wsgi.input'
p2947
asbag57
(g78
g59
NtRp2948
(dp2949
g62
(dp2950
g89
g90
ssg71
g2939
sg64
(lp2951
S':'
asbag57
(g78
g59
NtRp2952
(dp2953
g62
(dp2954
sg71
g2939
sg64
(lp2955
g57
(g58
g59
NtRp2956
(dp2957
g62
(dp2958
g70
I3
ssg71
g2952
sg64
(lp2959
S'<cStringIO.StringO object at 0x058B5320>'
p2960
asbasbasbag57
(g73
g59
NtRp2961
(dp2962
g62
(dp2963
sg71
g2471
sg64
(lp2964
g57
(g78
g59
NtRp2965
(dp2966
g62
(dp2967
g82
g83
ssg71
g2961
sg64
(lp2968
S'wsgi.multiprocess'
p2969
asbag57
(g78
g59
NtRp2970
(dp2971
g62
(dp2972
g89
g90
ssg71
g2961
sg64
(lp2973
S':'
asbag57
(g78
g59
NtRp2974
(dp2975
g62
(dp2976
sg71
g2961
sg64
(lp2977
g57
(g58
g59
NtRp2978
(dp2979
g62
(dp2980
g70
I3
ssg71
g2974
sg64
(lp2981
g100
asbasbasbag57
(g73
g59
NtRp2982
(dp2983
g62
(dp2984
sg71
g2471
sg64
(lp2985
g57
(g78
g59
NtRp2986
(dp2987
g62
(dp2988
g82
g83
ssg71
g2982
sg64
(lp2989
S'wsgi.multithread'
p2990
asbag57
(g78
g59
NtRp2991
(dp2992
g62
(dp2993
g89
g90
ssg71
g2982
sg64
(lp2994
S':'
asbag57
(g78
g59
NtRp2995
(dp2996
g62
(dp2997
sg71
g2982
sg64
(lp2998
g57
(g58
g59
NtRp2999
(dp3000
g62
(dp3001
g70
I3
ssg71
g2995
sg64
(lp3002
g1617
asbasbasbag57
(g73
g59
NtRp3003
(dp3004
g62
(dp3005
sg71
g2471
sg64
(lp3006
g57
(g78
g59
NtRp3007
(dp3008
g62
(dp3009
g82
g83
ssg71
g3003
sg64
(lp3010
S'wsgi.run_once'
p3011
asbag57
(g78
g59
NtRp3012
(dp3013
g62
(dp3014
g89
g90
ssg71
g3003
sg64
(lp3015
S':'
asbag57
(g78
g59
NtRp3016
(dp3017
g62
(dp3018
sg71
g3003
sg64
(lp3019
g57
(g58
g59
NtRp3020
(dp3021
g62
(dp3022
g70
I3
ssg71
g3016
sg64
(lp3023
g100
asbasbasbag57
(g73
g59
NtRp3024
(dp3025
g62
(dp3026
sg71
g2471
sg64
(lp3027
g57
(g78
g59
NtRp3028
(dp3029
g62
(dp3030
g82
g83
ssg71
g3024
sg64
(lp3031
S'wsgi.url_scheme'
p3032
asbag57
(g78
g59
NtRp3033
(dp3034
g62
(dp3035
g89
g90
ssg71
g3024
sg64
(lp3036
S':'
asbag57
(g78
g59
NtRp3037
(dp3038
g62
(dp3039
sg71
g3024
sg64
(lp3040
g57
(g58
g59
NtRp3041
(dp3042
g62
(dp3043
g70
I3
ssg71
g3037
sg64
(lp3044
g1660
asbasbasbag57
(g73
g59
NtRp3045
(dp3046
g62
(dp3047
sg71
g2471
sg64
(lp3048
g57
(g78
g59
NtRp3049
(dp3050
g62
(dp3051
g82
g83
ssg71
g3045
sg64
(lp3052
S'wsgi.version'
p3053
asbag57
(g78
g59
NtRp3054
(dp3055
g62
(dp3056
g89
g90
ssg71
g3045
sg64
(lp3057
S':'
asbag57
(g78
g59
NtRp3058
(dp3059
g62
(dp3060
sg71
g3045
sg64
(lp3061
g57
(g58
g59
NtRp3062
(dp3063
g62
(dp3064
g70
I3
ssg71
g3058
sg64
(lp3065
S'1'
asbasbasbasbasbasbasbasbasbasbasbasbasbsS'frames'
p3066
(lp3067
(dp3068
S'file'
p3069
S'C:\\Python27\\web2py\\gluon\\restricted.py'
p3070
sS'dump'
p3071
(dp3072
S'environment'
p3073
S"{'A': <class 'gluon.html.A'>, 'Auth': <class 'gluon.tools.Auth'>, 'B': <class 'gluon.html.B'>, 'BEAUTIFY': <class 'gluon.html.BEAUTIFY'>, 'BODY': <class 'gluon.html.BODY'>, 'BR': <class 'gluon.html.BR'>, 'BUTTON': <class 'gluon.html.BUTTON'>, 'CAT': <class 'gluon.html.CAT'>, 'CENTER': <class 'gluon.html.CENTER'>, 'CLEANUP': <class 'gluon.validators.CLEANUP'>, ...}"
p3074
sS'ccode'
p3075
S'<code object <module> at 055BCF08, file "C:\\Pyth...applications\\hw4\\controllers/teacher.py", line 3>'
p3076
ssS'lnum'
p3077
I212
sS'lines'
p3078
(dp3079
I207
S'    try:'
p3080
sI208
S'        if isinstance(code, types.CodeType):'
p3081
sI209
S'            ccode = code'
p3082
sI210
S'        else:'
p3083
sI211
S'            ccode = compile2(code, layer)'
p3084
sI212
S'        exec ccode in environment'
p3085
sI213
S'    except HTTP:'
p3086
sI214
S'        raise'
p3087
sI215
S'    except RestrictedError:'
p3088
sI216
S'        # do not encapsulate (obfuscate) the original RestrictedError'
p3089
ssS'call'
p3090
S"(code='# coding: utf8\\n# \\xe5\\xb0\\x9d\\xe8\\xaf\\x95\\n@auth.requires(request.c...uest, db)\\nresponse._vars=response._caller(pigai)\\n', environment={'A': <class 'gluon.html.A'>, 'Auth': <class 'gluon.tools.Auth'>, 'B': <class 'gluon.html.B'>, 'BEAUTIFY': <class 'gluon.html.BEAUTIFY'>, 'BODY': <class 'gluon.html.BODY'>, 'BR': <class 'gluon.html.BR'>, 'BUTTON': <class 'gluon.html.BUTTON'>, 'CAT': <class 'gluon.html.CAT'>, 'CENTER': <class 'gluon.html.CENTER'>, 'CLEANUP': <class 'gluon.validators.CLEANUP'>, ...}, layer=r'C:\\Python27\\web2py\\applications\\hw4\\controllers/teacher.py')"
p3091
sS'func'
p3092
S'restricted'
p3093
sa(dp3094
g3069
S'C:\\Python27\\web2py\\applications\\hw4\\controllers\\teacher.py'
p3095
sg3071
(dp3096
sg3077
I72
sg3078
(dp3097
I64
S"        return dict(error=H3('\xe6\xb2\xa1\xe6\x9c\x89\xe5\x8f\xaf\xe4\xbb\xa5\xe6\x89\xb9\xe6\x94\xb9\xe7\x9a\x84\xe4\xbd\x9c\xe4\xb8\x9a'))"
p3098
sI65
S''
sI66
S'def download():'
p3099
sI67
S'    """'
p3100
sI68
S'    allows downloading of uploaded files'
p3101
sI69
S'    http://..../[app]/default/download/[filename]'
p3102
sI70
S'    """'
p3103
sI71
S'    return response.download(request, db)'
p3104
sI62
S'        return dict(form=form,vals=vals,req=request)'
p3105
sI63
S'    else:'
p3106
ssg3090
S'()'
p3107
sg3092
S'<module>'
p3108
sa(dp3109
g3069
S'C:\\Python27\\web2py\\gluon\\globals.py'
p3110
sg3071
(dp3111
S'self'
p3112
S'undefined'
p3113
sS'f'
S'<function pigai>'
p3114
ssg3077
I193
sg3078
(dp3115
I192
S'        self._vars = None'
p3116
sI193
S'        self._caller = lambda f: f()'
p3117
sI194
S'        self._view_environment = None'
p3118
sI195
S'        self._custom_commit = None'
p3119
sI196
S'        self._custom_rollback = None'
p3120
sI197
S''
sI188
S'        self.menu = []             # used by the default view layout'
p3121
sI189
S'        self.files = []            # used by web2py_ajax.html'
p3122
sI190
S'        self.generic_patterns = []  # patterns to allow generic views'
p3123
sI191
S"        self.delimiters = ('{{', '}}')"
p3124
ssg3090
S'(f=<function pigai>)'
p3125
sg3092
S'<lambda>'
p3126
sa(dp3127
g3069
S'C:\\Python27\\web2py\\gluon\\tools.py'
p3128
sg3071
(dp3129
S'action'
p3130
S'<function pigai>'
p3131
sS'a'
S'()'
p3132
sS'b'
g45
ssg3077
I2929
sg3078
(dp3133
I2924
S'                    flag = condition'
p3134
sI2925
S'                if not flag:'
p3135
sI2926
S'                    current.session.flash = self.messages.access_denied'
p3136
sI2927
S'                    return call_or_redirect('
p3137
sI2928
S'                        self.settings.on_failed_authorization)'
p3138
sI2929
S'                return action(*a, **b)'
p3139
sI2930
S'            f.__doc__ = action.__doc__'
p3140
sI2931
S'            f.__name__ = action.__name__'
p3141
sI2932
S'            f.__dict__.update(action.__dict__)'
p3142
sI2933
S'            return f'
p3143
ssg3090
S'(*a=(), **b={})'
p3144
sg3092
S'f'
sa(dp3145
g3069
S'C:\\Python27\\web2py\\applications\\hw4\\controllers\\teacher.py'
p3146
sg3071
(dp3147
sg3077
I62
sg3078
(dp3148
I64
S"        return dict(error=H3('\xe6\xb2\xa1\xe6\x9c\x89\xe5\x8f\xaf\xe4\xbb\xa5\xe6\x89\xb9\xe6\x94\xb9\xe7\x9a\x84\xe4\xbd\x9c\xe4\xb8\x9a'))"
p3149
sI65
S''
sI66
S'def download():'
p3150
sI57
S'    row=db(db.zuoye.keshi==keshi_id).select().first()'
p3151
sI58
S'    if row:'
p3152
sI59
S"        form=SQLFORM(db.zuoye,row.id,upload=URL('download'))"
p3153
sI60
S''
sI61
S''
sI62
S'        return dict(form=form,vals=vals,req=request)'
p3154
sI63
S'    else:'
p3155
ssg3090
S'()'
p3156
sg3092
S'pigai'
p3157
sasS'pyver'
p3158
S'Python 2.7.3: C:\\Python27\\python.exe'
p3159
sS'session'
p3160
g57
(g58
g59
NtRp3161
(dp3162
g62
(dp3163
sg64
(lp3164
g57
(g66
g59
NtRp3165
(dp3166
g62
(dp3167
g70
I5
ssg71
Nsg64
(lp3168
g57
(g73
g59
NtRp3169
(dp3170
g62
(dp3171
sg71
g3165
sg64
(lp3172
g57
(g78
g59
NtRp3173
(dp3174
g62
(dp3175
g82
g83
ssg71
g3169
sg64
(lp3176
S'auth'
p3177
asbag57
(g78
g59
NtRp3178
(dp3179
g62
(dp3180
g89
g90
ssg71
g3169
sg64
(lp3181
S':'
asbag57
(g78
g59
NtRp3182
(dp3183
g62
(dp3184
sg71
g3169
sg64
(lp3185
g57
(g58
g59
NtRp3186
(dp3187
g62
(dp3188
g70
I5
ssg71
g3182
sg64
(lp3189
g57
(g66
g59
NtRp3190
(dp3191
g62
(dp3192
g70
I4
ssg71
Nsg64
(lp3193
g57
(g73
g59
NtRp3194
(dp3195
g62
(dp3196
sg71
g3190
sg64
(lp3197
g57
(g78
g59
NtRp3198
(dp3199
g62
(dp3200
g82
g83
ssg71
g3194
sg64
(lp3201
S'expiration'
p3202
asbag57
(g78
g59
NtRp3203
(dp3204
g62
(dp3205
g89
g90
ssg71
g3194
sg64
(lp3206
S':'
asbag57
(g78
g59
NtRp3207
(dp3208
g62
(dp3209
sg71
g3194
sg64
(lp3210
g57
(g58
g59
NtRp3211
(dp3212
g62
(dp3213
g70
I4
ssg71
g3207
sg64
(lp3214
S'3600'
p3215
asbasbasbag57
(g73
g59
NtRp3216
(dp3217
g62
(dp3218
sg71
g3190
sg64
(lp3219
g57
(g78
g59
NtRp3220
(dp3221
g62
(dp3222
g82
g83
ssg71
g3216
sg64
(lp3223
S'hmac_key'
p3224
asbag57
(g78
g59
NtRp3225
(dp3226
g62
(dp3227
g89
g90
ssg71
g3216
sg64
(lp3228
S':'
asbag57
(g78
g59
NtRp3229
(dp3230
g62
(dp3231
sg71
g3216
sg64
(lp3232
g57
(g58
g59
NtRp3233
(dp3234
g62
(dp3235
g70
I4
ssg71
g3229
sg64
(lp3236
S'a6f0f49b-b020-4ee7-bfad-8eb570843814'
p3237
asbasbasbag57
(g73
g59
NtRp3238
(dp3239
g62
(dp3240
sg71
g3190
sg64
(lp3241
g57
(g78
g59
NtRp3242
(dp3243
g62
(dp3244
g82
g83
ssg71
g3238
sg64
(lp3245
S'last_visit'
p3246
asbag57
(g78
g59
NtRp3247
(dp3248
g62
(dp3249
g89
g90
ssg71
g3238
sg64
(lp3250
S':'
asbag57
(g78
g59
NtRp3251
(dp3252
g62
(dp3253
sg71
g3238
sg64
(lp3254
g57
(g58
g59
NtRp3255
(dp3256
g62
(dp3257
g70
I4
ssg71
g3251
sg64
(lp3258
S'datetime.datetime(2013, 9, 1, 13, 33, 14, 281000)'
p3259
asbasbasbag57
(g73
g59
NtRp3260
(dp3261
g62
(dp3262
sg71
g3190
sg64
(lp3263
g57
(g78
g59
NtRp3264
(dp3265
g62
(dp3266
g82
g83
ssg71
g3260
sg64
(lp3267
S'remember'
p3268
asbag57
(g78
g59
NtRp3269
(dp3270
g62
(dp3271
g89
g90
ssg71
g3260
sg64
(lp3272
S':'
asbag57
(g78
g59
NtRp3273
(dp3274
g62
(dp3275
sg71
g3260
sg64
(lp3276
g57
(g58
g59
NtRp3277
(dp3278
g62
(dp3279
g70
I4
ssg71
g3273
sg64
(lp3280
g100
asbasbasbag57
(g73
g59
NtRp3281
(dp3282
g62
(dp3283
sg71
g3190
sg64
(lp3284
g57
(g78
g59
NtRp3285
(dp3286
g62
(dp3287
g82
g83
ssg71
g3281
sg64
(lp3288
S'user'
p3289
asbag57
(g78
g59
NtRp3290
(dp3291
g62
(dp3292
g89
g90
ssg71
g3281
sg64
(lp3293
S':'
asbag57
(g78
g59
NtRp3294
(dp3295
g62
(dp3296
sg71
g3281
sg64
(lp3297
g57
(g58
g59
NtRp3298
(dp3299
g62
(dp3300
g70
I4
ssg71
g3294
sg64
(lp3301
g57
(g66
g59
NtRp3302
(dp3303
g62
(dp3304
g70
I3
ssg71
Nsg64
(lp3305
g57
(g73
g59
NtRp3306
(dp3307
g62
(dp3308
sg71
g3302
sg64
(lp3309
g57
(g78
g59
NtRp3310
(dp3311
g62
(dp3312
g82
g83
ssg71
g3306
sg64
(lp3313
S'banji'
p3314
asbag57
(g78
g59
NtRp3315
(dp3316
g62
(dp3317
g89
g90
ssg71
g3306
sg64
(lp3318
S':'
asbag57
(g78
g59
NtRp3319
(dp3320
g62
(dp3321
sg71
g3306
sg64
(lp3322
g57
(g58
g59
NtRp3323
(dp3324
g62
(dp3325
g70
I3
ssg71
g3319
sg64
(lp3326
S'00'
p3327
asbasbasbag57
(g73
g59
NtRp3328
(dp3329
g62
(dp3330
sg71
g3302
sg64
(lp3331
g57
(g78
g59
NtRp3332
(dp3333
g62
(dp3334
g82
g83
ssg71
g3328
sg64
(lp3335
S'email'
p3336
asbag57
(g78
g59
NtRp3337
(dp3338
g62
(dp3339
g89
g90
ssg71
g3328
sg64
(lp3340
S':'
asbag57
(g78
g59
NtRp3341
(dp3342
g62
(dp3343
sg71
g3328
sg64
(lp3344
g57
(g58
g59
NtRp3345
(dp3346
g62
(dp3347
g70
I3
ssg71
g3341
sg64
(lp3348
S'teacher@teacher.com'
p3349
asbasbasbag57
(g73
g59
NtRp3350
(dp3351
g62
(dp3352
sg71
g3302
sg64
(lp3353
g57
(g78
g59
NtRp3354
(dp3355
g62
(dp3356
g82
g83
ssg71
g3350
sg64
(lp3357
S'first_name'
p3358
asbag57
(g78
g59
NtRp3359
(dp3360
g62
(dp3361
g89
g90
ssg71
g3350
sg64
(lp3362
S':'
asbag57
(g78
g59
NtRp3363
(dp3364
g62
(dp3365
sg71
g3350
sg64
(lp3366
g57
(g58
g59
NtRp3367
(dp3368
g62
(dp3369
g70
I3
ssg71
g3363
sg64
(lp3370
S'teacher'
p3371
asbasbasbag57
(g73
g59
NtRp3372
(dp3373
g62
(dp3374
sg71
g3302
sg64
(lp3375
g57
(g78
g59
NtRp3376
(dp3377
g62
(dp3378
g82
g83
ssg71
g3372
sg64
(lp3379
S'id'
p3380
asbag57
(g78
g59
NtRp3381
(dp3382
g62
(dp3383
g89
g90
ssg71
g3372
sg64
(lp3384
S':'
asbag57
(g78
g59
NtRp3385
(dp3386
g62
(dp3387
sg71
g3372
sg64
(lp3388
g57
(g58
g59
NtRp3389
(dp3390
g62
(dp3391
g70
I3
ssg71
g3385
sg64
(lp3392
S'5'
asbasbasbag57
(g73
g59
NtRp3393
(dp3394
g62
(dp3395
sg71
g3302
sg64
(lp3396
g57
(g78
g59
NtRp3397
(dp3398
g62
(dp3399
g82
g83
ssg71
g3393
sg64
(lp3400
S'jie'
p3401
asbag57
(g78
g59
NtRp3402
(dp3403
g62
(dp3404
g89
g90
ssg71
g3393
sg64
(lp3405
S':'
asbag57
(g78
g59
NtRp3406
(dp3407
g62
(dp3408
sg71
g3393
sg64
(lp3409
g57
(g58
g59
NtRp3410
(dp3411
g62
(dp3412
g70
I3
ssg71
g3406
sg64
(lp3413
S'00'
p3414
asbasbasbag57
(g73
g59
NtRp3415
(dp3416
g62
(dp3417
sg71
g3302
sg64
(lp3418
g57
(g78
g59
NtRp3419
(dp3420
g62
(dp3421
g82
g83
ssg71
g3415
sg64
(lp3422
S'last_name'
p3423
asbag57
(g78
g59
NtRp3424
(dp3425
g62
(dp3426
g89
g90
ssg71
g3415
sg64
(lp3427
S':'
asbag57
(g78
g59
NtRp3428
(dp3429
g62
(dp3430
sg71
g3415
sg64
(lp3431
g57
(g58
g59
NtRp3432
(dp3433
g62
(dp3434
g70
I3
ssg71
g3428
sg64
(lp3435
S'00'
p3436
asbasbasbag57
(g73
g59
NtRp3437
(dp3438
g62
(dp3439
sg71
g3302
sg64
(lp3440
g57
(g78
g59
NtRp3441
(dp3442
g62
(dp3443
g82
g83
ssg71
g3437
sg64
(lp3444
S'registration_id'
p3445
asbag57
(g78
g59
NtRp3446
(dp3447
g62
(dp3448
g89
g90
ssg71
g3437
sg64
(lp3449
S':'
asbag57
(g78
g59
NtRp3450
(dp3451
g62
(dp3452
sg71
g3437
sg64
(lp3453
g57
(g58
g59
NtRp3454
(dp3455
g62
(dp3456
g70
I3
ssg71
g3450
sg64
(lp3457
S''
asbasbasbag57
(g73
g59
NtRp3458
(dp3459
g62
(dp3460
sg71
g3302
sg64
(lp3461
g57
(g78
g59
NtRp3462
(dp3463
g62
(dp3464
g82
g83
ssg71
g3458
sg64
(lp3465
S'registration_key'
p3466
asbag57
(g78
g59
NtRp3467
(dp3468
g62
(dp3469
g89
g90
ssg71
g3458
sg64
(lp3470
S':'
asbag57
(g78
g59
NtRp3471
(dp3472
g62
(dp3473
sg71
g3458
sg64
(lp3474
g57
(g58
g59
NtRp3475
(dp3476
g62
(dp3477
g70
I3
ssg71
g3471
sg64
(lp3478
S''
asbasbasbag57
(g73
g59
NtRp3479
(dp3480
g62
(dp3481
sg71
g3302
sg64
(lp3482
g57
(g78
g59
NtRp3483
(dp3484
g62
(dp3485
g82
g83
ssg71
g3479
sg64
(lp3486
S'reset_password_key'
p3487
asbag57
(g78
g59
NtRp3488
(dp3489
g62
(dp3490
g89
g90
ssg71
g3479
sg64
(lp3491
S':'
asbag57
(g78
g59
NtRp3492
(dp3493
g62
(dp3494
sg71
g3479
sg64
(lp3495
g57
(g58
g59
NtRp3496
(dp3497
g62
(dp3498
g70
I3
ssg71
g3492
sg64
(lp3499
S''
asbasbasbasbasbasbasbag57
(g73
g59
NtRp3500
(dp3501
g62
(dp3502
sg71
g3190
sg64
(lp3503
g57
(g78
g59
NtRp3504
(dp3505
g62
(dp3506
g82
g83
ssg71
g3500
sg64
(lp3507
S'user_groups'
p3508
asbag57
(g78
g59
NtRp3509
(dp3510
g62
(dp3511
g89
g90
ssg71
g3500
sg64
(lp3512
S':'
asbag57
(g78
g59
NtRp3513
(dp3514
g62
(dp3515
sg71
g3500
sg64
(lp3516
g57
(g58
g59
NtRp3517
(dp3518
g62
(dp3519
g70
I4
ssg71
g3513
sg64
(lp3520
g57
(g66
g59
NtRp3521
(dp3522
g62
(dp3523
g70
I3
ssg71
Nsg64
(lp3524
g57
(g73
g59
NtRp3525
(dp3526
g62
(dp3527
sg71
g3521
sg64
(lp3528
g57
(g78
g59
NtRp3529
(dp3530
g62
(dp3531
g82
g83
ssg71
g3525
sg64
(lp3532
S'5'
asbag57
(g78
g59
NtRp3533
(dp3534
g62
(dp3535
g89
g90
ssg71
g3525
sg64
(lp3536
S':'
asbag57
(g78
g59
NtRp3537
(dp3538
g62
(dp3539
sg71
g3525
sg64
(lp3540
g57
(g58
g59
NtRp3541
(dp3542
g62
(dp3543
g70
I3
ssg71
g3537
sg64
(lp3544
S'teacher'
p3545
asbasbasbasbasbasbasbasbasbasbasbag57
(g73
g59
NtRp3546
(dp3547
g62
(dp3548
sg71
g3165
sg64
(lp3549
g57
(g78
g59
NtRp3550
(dp3551
g62
(dp3552
g82
g83
ssg71
g3546
sg64
(lp3553
S'flash'
p3554
asbag57
(g78
g59
NtRp3555
(dp3556
g62
(dp3557
g89
g90
ssg71
g3546
sg64
(lp3558
S':'
asbag57
(g78
g59
NtRp3559
(dp3560
g62
(dp3561
sg71
g3546
sg64
(lp3562
g57
(g58
g59
NtRp3563
(dp3564
g62
(dp3565
g70
I5
ssg71
g3559
sg64
(lp3566
S'None'
p3567
asbasbasbasbasbsS'etype'
p3568
S"<type 'exceptions.NameError'>"
p3569
sS'date'
p3570
S'Sun Sep 01 13:33:23 2013'
p3571
sS'response'
p3572
g57
(g58
g59
NtRp3573
(dp3574
g62
(dp3575
sg64
(lp3576
g57
(g66
g59
NtRp3577
(dp3578
g62
(dp3579
g70
I5
ssg71
Nsg64
(lp3580
g57
(g73
g59
NtRp3581
(dp3582
g62
(dp3583
sg71
g3577
sg64
(lp3584
g57
(g78
g59
NtRp3585
(dp3586
g62
(dp3587
g82
g83
ssg71
g3581
sg64
(lp3588
g167
asbag57
(g78
g59
NtRp3589
(dp3590
g62
(dp3591
g89
g90
ssg71
g3581
sg64
(lp3592
S':'
asbag57
(g78
g59
NtRp3593
(dp3594
g62
(dp3595
sg71
g3581
sg64
(lp3596
g57
(g58
g59
NtRp3597
(dp3598
g62
(dp3599
g70
I5
ssg71
g3593
sg64
(lp3600
S'<cStringIO.StringO object at 0x06475600>'
p3601
asbasbasbag57
(g73
g59
NtRp3602
(dp3603
g62
(dp3604
sg71
g3577
sg64
(lp3605
g57
(g78
g59
NtRp3606
(dp3607
g62
(dp3608
g82
g83
ssg71
g3602
sg64
(lp3609
g255
asbag57
(g78
g59
NtRp3610
(dp3611
g62
(dp3612
g89
g90
ssg71
g3602
sg64
(lp3613
S':'
asbag57
(g78
g59
NtRp3614
(dp3615
g62
(dp3616
sg71
g3602
sg64
(lp3617
g57
(g58
g59
NtRp3618
(dp3619
g62
(dp3620
g70
I5
ssg71
g3614
sg64
(lp3621
g57
(g66
g59
NtRp3622
(dp3623
g62
(dp3624
g70
I4
ssg71
Nsg64
(lp3625
g57
(g73
g59
NtRp3626
(dp3627
g62
(dp3628
sg71
g3622
sg64
(lp3629
g57
(g78
g59
NtRp3630
(dp3631
g62
(dp3632
g82
g83
ssg71
g3626
sg64
(lp3633
S'session_id_hw4'
p3634
asbag57
(g78
g59
NtRp3635
(dp3636
g62
(dp3637
g89
g90
ssg71
g3626
sg64
(lp3638
S':'
asbag57
(g78
g59
NtRp3639
(dp3640
g62
(dp3641
sg71
g3626
sg64
(lp3642
g57
(g58
g59
NtRp3643
(dp3644
g62
(dp3645
g70
I4
ssg71
g3639
sg64
(lp3646
g487
ag57
(g66
g59
NtRp3647
(dp3648
g62
(dp3649
g70
I3
ssg71
Nsg64
(lp3650
g57
(g73
g59
NtRp3651
(dp3652
g62
(dp3653
sg71
g3647
sg64
(lp3654
g57
(g78
g59
NtRp3655
(dp3656
g62
(dp3657
g82
g83
ssg71
g3651
sg64
(lp3658
g306
asbag57
(g78
g59
NtRp3659
(dp3660
g62
(dp3661
g89
g90
ssg71
g3651
sg64
(lp3662
S':'
asbag57
(g78
g59
NtRp3663
(dp3664
g62
(dp3665
sg71
g3651
sg64
(lp3666
g57
(g58
g59
NtRp3667
(dp3668
g62
(dp3669
g70
I3
ssg71
g3663
sg64
(lp3670
S''
asbasbasbag57
(g73
g59
NtRp3671
(dp3672
g62
(dp3673
sg71
g3647
sg64
(lp3674
g57
(g78
g59
NtRp3675
(dp3676
g62
(dp3677
g82
g83
ssg71
g3671
sg64
(lp3678
g327
asbag57
(g78
g59
NtRp3679
(dp3680
g62
(dp3681
g89
g90
ssg71
g3671
sg64
(lp3682
S':'
asbag57
(g78
g59
NtRp3683
(dp3684
g62
(dp3685
sg71
g3671
sg64
(lp3686
g57
(g58
g59
NtRp3687
(dp3688
g62
(dp3689
g70
I3
ssg71
g3683
sg64
(lp3690
S''
asbasbasbag57
(g73
g59
NtRp3691
(dp3692
g62
(dp3693
sg71
g3647
sg64
(lp3694
g57
(g78
g59
NtRp3695
(dp3696
g62
(dp3697
g82
g83
ssg71
g3691
sg64
(lp3698
g348
asbag57
(g78
g59
NtRp3699
(dp3700
g62
(dp3701
g89
g90
ssg71
g3691
sg64
(lp3702
S':'
asbag57
(g78
g59
NtRp3703
(dp3704
g62
(dp3705
sg71
g3691
sg64
(lp3706
g57
(g58
g59
NtRp3707
(dp3708
g62
(dp3709
g70
I3
ssg71
g3703
sg64
(lp3710
S''
asbasbasbag57
(g73
g59
NtRp3711
(dp3712
g62
(dp3713
sg71
g3647
sg64
(lp3714
g57
(g78
g59
NtRp3715
(dp3716
g62
(dp3717
g82
g83
ssg71
g3711
sg64
(lp3718
g369
asbag57
(g78
g59
NtRp3719
(dp3720
g62
(dp3721
g89
g90
ssg71
g3711
sg64
(lp3722
S':'
asbag57
(g78
g59
NtRp3723
(dp3724
g62
(dp3725
sg71
g3711
sg64
(lp3726
g57
(g58
g59
NtRp3727
(dp3728
g62
(dp3729
g70
I3
ssg71
g3723
sg64
(lp3730
S''
asbasbasbag57
(g73
g59
NtRp3731
(dp3732
g62
(dp3733
sg71
g3647
sg64
(lp3734
g57
(g78
g59
NtRp3735
(dp3736
g62
(dp3737
g82
g83
ssg71
g3731
sg64
(lp3738
g390
asbag57
(g78
g59
NtRp3739
(dp3740
g62
(dp3741
g89
g90
ssg71
g3731
sg64
(lp3742
S':'
asbag57
(g78
g59
NtRp3743
(dp3744
g62
(dp3745
sg71
g3731
sg64
(lp3746
g57
(g58
g59
NtRp3747
(dp3748
g62
(dp3749
g70
I3
ssg71
g3743
sg64
(lp3750
S''
asbasbasbag57
(g73
g59
NtRp3751
(dp3752
g62
(dp3753
sg71
g3647
sg64
(lp3754
g57
(g78
g59
NtRp3755
(dp3756
g62
(dp3757
g82
g83
ssg71
g3751
sg64
(lp3758
g411
asbag57
(g78
g59
NtRp3759
(dp3760
g62
(dp3761
g89
g90
ssg71
g3751
sg64
(lp3762
S':'
asbag57
(g78
g59
NtRp3763
(dp3764
g62
(dp3765
sg71
g3751
sg64
(lp3766
g57
(g58
g59
NtRp3767
(dp3768
g62
(dp3769
g70
I3
ssg71
g3763
sg64
(lp3770
S'/'
asbasbasbag57
(g73
g59
NtRp3771
(dp3772
g62
(dp3773
sg71
g3647
sg64
(lp3774
g57
(g78
g59
NtRp3775
(dp3776
g62
(dp3777
g82
g83
ssg71
g3771
sg64
(lp3778
g432
asbag57
(g78
g59
NtRp3779
(dp3780
g62
(dp3781
g89
g90
ssg71
g3771
sg64
(lp3782
S':'
asbag57
(g78
g59
NtRp3783
(dp3784
g62
(dp3785
sg71
g3771
sg64
(lp3786
g57
(g58
g59
NtRp3787
(dp3788
g62
(dp3789
g70
I3
ssg71
g3783
sg64
(lp3790
S''
asbasbasbag57
(g73
g59
NtRp3791
(dp3792
g62
(dp3793
sg71
g3647
sg64
(lp3794
g57
(g78
g59
NtRp3795
(dp3796
g62
(dp3797
g82
g83
ssg71
g3791
sg64
(lp3798
g453
asbag57
(g78
g59
NtRp3799
(dp3800
g62
(dp3801
g89
g90
ssg71
g3791
sg64
(lp3802
S':'
asbag57
(g78
g59
NtRp3803
(dp3804
g62
(dp3805
sg71
g3791
sg64
(lp3806
g57
(g58
g59
NtRp3807
(dp3808
g62
(dp3809
g70
I3
ssg71
g3803
sg64
(lp3810
S''
asbasbasbasbasbasbasbasbasbasbasbag57
(g73
g59
NtRp3811
(dp3812
g62
(dp3813
sg71
g3577
sg64
(lp3814
g57
(g78
g59
NtRp3815
(dp3816
g62
(dp3817
g82
g83
ssg71
g3811
sg64
(lp3818
S'delimiters'
p3819
asbag57
(g78
g59
NtRp3820
(dp3821
g62
(dp3822
g89
g90
ssg71
g3811
sg64
(lp3823
S':'
asbag57
(g78
g59
NtRp3824
(dp3825
g62
(dp3826
sg71
g3811
sg64
(lp3827
g57
(g58
g59
NtRp3828
(dp3829
g62
(dp3830
g70
I5
ssg71
g3824
sg64
(lp3831
g57
(g66
g59
NtRp3832
(dp3833
g62
(dp3834
g70
I4
ssg71
Nsg64
(lp3835
g57
(g73
g59
NtRp3836
(dp3837
g62
(dp3838
sg71
g3832
sg64
(lp3839
g57
(g78
g59
NtRp3840
(dp3841
g62
(dp3842
sg71
g3836
sg64
(lp3843
g57
(g58
g59
NtRp3844
(dp3845
g62
(dp3846
g70
I4
ssg71
g3840
sg64
(lp3847
S'{{'
p3848
asbasbasbag57
(g73
g59
NtRp3849
(dp3850
g62
(dp3851
sg71
g3832
sg64
(lp3852
g57
(g78
g59
NtRp3853
(dp3854
g62
(dp3855
sg71
g3849
sg64
(lp3856
g57
(g58
g59
NtRp3857
(dp3858
g62
(dp3859
g70
I4
ssg71
g3853
sg64
(lp3860
S'}}'
p3861
asbasbasbasbasbasbasbag57
(g73
g59
NtRp3862
(dp3863
g62
(dp3864
sg71
g3577
sg64
(lp3865
g57
(g78
g59
NtRp3866
(dp3867
g62
(dp3868
g82
g83
ssg71
g3862
sg64
(lp3869
S'files'
p3870
asbag57
(g78
g59
NtRp3871
(dp3872
g62
(dp3873
g89
g90
ssg71
g3862
sg64
(lp3874
S':'
asbag57
(g78
g59
NtRp3875
(dp3876
g62
(dp3877
sg71
g3862
sg64
(lp3878
g57
(g58
g59
NtRp3879
(dp3880
g62
(dp3881
g70
I5
ssg71
g3875
sg64
(lp3882
g57
(g66
g59
NtRp3883
(dp3884
g62
(dp3885
g70
I4
ssg71
Nsg64
(lp3886
sbasbasbasbag57
(g73
g59
NtRp3887
(dp3888
g62
(dp3889
sg71
g3577
sg64
(lp3890
g57
(g78
g59
NtRp3891
(dp3892
g62
(dp3893
g82
g83
ssg71
g3887
sg64
(lp3894
S'flash'
p3895
asbag57
(g78
g59
NtRp3896
(dp3897
g62
(dp3898
g89
g90
ssg71
g3887
sg64
(lp3899
S':'
asbag57
(g78
g59
NtRp3900
(dp3901
g62
(dp3902
sg71
g3887
sg64
(lp3903
g57
(g58
g59
NtRp3904
(dp3905
g62
(dp3906
g70
I5
ssg71
g3900
sg64
(lp3907
S''
asbasbasbag57
(g73
g59
NtRp3908
(dp3909
g62
(dp3910
sg71
g3577
sg64
(lp3911
g57
(g78
g59
NtRp3912
(dp3913
g62
(dp3914
g82
g83
ssg71
g3908
sg64
(lp3915
S'generic_patterns'
p3916
asbag57
(g78
g59
NtRp3917
(dp3918
g62
(dp3919
g89
g90
ssg71
g3908
sg64
(lp3920
S':'
asbag57
(g78
g59
NtRp3921
(dp3922
g62
(dp3923
sg71
g3908
sg64
(lp3924
g57
(g58
g59
NtRp3925
(dp3926
g62
(dp3927
g70
I5
ssg71
g3921
sg64
(lp3928
g57
(g66
g59
NtRp3929
(dp3930
g62
(dp3931
g70
I4
ssg71
Nsg64
(lp3932
g57
(g73
g59
NtRp3933
(dp3934
g62
(dp3935
sg71
g3929
sg64
(lp3936
g57
(g78
g59
NtRp3937
(dp3938
g62
(dp3939
sg71
g3933
sg64
(lp3940
g57
(g58
g59
NtRp3941
(dp3942
g62
(dp3943
g70
I4
ssg71
g3937
sg64
(lp3944
S'*'
asbasbasbasbasbasbasbag57
(g73
g59
NtRp3945
(dp3946
g62
(dp3947
sg71
g3577
sg64
(lp3948
g57
(g78
g59
NtRp3949
(dp3950
g62
(dp3951
g82
g83
ssg71
g3945
sg64
(lp3952
S'google_analytics_id'
p3953
asbag57
(g78
g59
NtRp3954
(dp3955
g62
(dp3956
g89
g90
ssg71
g3945
sg64
(lp3957
S':'
asbag57
(g78
g59
NtRp3958
(dp3959
g62
(dp3960
sg71
g3945
sg64
(lp3961
g57
(g58
g59
NtRp3962
(dp3963
g62
(dp3964
g70
I5
ssg71
g3958
sg64
(lp3965
S'None'
p3966
asbasbasbag57
(g73
g59
NtRp3967
(dp3968
g62
(dp3969
sg71
g3577
sg64
(lp3970
g57
(g78
g59
NtRp3971
(dp3972
g62
(dp3973
g82
g83
ssg71
g3967
sg64
(lp3974
S'headers'
p3975
asbag57
(g78
g59
NtRp3976
(dp3977
g62
(dp3978
g89
g90
ssg71
g3967
sg64
(lp3979
S':'
asbag57
(g78
g59
NtRp3980
(dp3981
g62
(dp3982
sg71
g3967
sg64
(lp3983
g57
(g58
g59
NtRp3984
(dp3985
g62
(dp3986
g70
I5
ssg71
g3980
sg64
(lp3987
g57
(g66
g59
NtRp3988
(dp3989
g62
(dp3990
g70
I4
ssg71
Nsg64
(lp3991
g57
(g73
g59
NtRp3992
(dp3993
g62
(dp3994
sg71
g3988
sg64
(lp3995
g57
(g78
g59
NtRp3996
(dp3997
g62
(dp3998
g82
g83
ssg71
g3992
sg64
(lp3999
S'X-Powered-By'
p4000
asbag57
(g78
g59
NtRp4001
(dp4002
g62
(dp4003
g89
g90
ssg71
g3992
sg64
(lp4004
S':'
asbag57
(g78
g59
NtRp4005
(dp4006
g62
(dp4007
sg71
g3992
sg64
(lp4008
g57
(g58
g59
NtRp4009
(dp4010
g62
(dp4011
g70
I4
ssg71
g4005
sg64
(lp4012
S'web2py'
p4013
asbasbasbasbasbasbasbag57
(g73
g59
NtRp4014
(dp4015
g62
(dp4016
sg71
g3577
sg64
(lp4017
g57
(g78
g59
NtRp4018
(dp4019
g62
(dp4020
g82
g83
ssg71
g4014
sg64
(lp4021
S'logo'
p4022
asbag57
(g78
g59
NtRp4023
(dp4024
g62
(dp4025
g89
g90
ssg71
g4014
sg64
(lp4026
S':'
asbag57
(g78
g59
NtRp4027
(dp4028
g62
(dp4029
sg71
g4014
sg64
(lp4030
g57
(g58
g59
NtRp4031
(dp4032
g62
(dp4033
g70
I5
ssg71
g4027
sg64
(lp4034
g57
(cgluon.html
A
p4035
g59
NtRp4036
(dp4037
g62
(dp4038
S'_class'
p4039
S'brand'
p4040
sS'_href'
p4041
S'http://www.ningwai.net/'
p4042
ssg71
Nsg64
(lp4043
g57
(cgluon.html
B
p4044
g59
NtRp4045
(dp4046
g62
(dp4047
sg71
g4036
sg64
(lp4048
S'ningwai'
p4049
asbacgluon.html
XML_unpickle
p4050
(S's\r\x00\x00\x00&trade;&nbsp;'
tRp4051
asbasbasbasbag57
(g73
g59
NtRp4052
(dp4053
g62
(dp4054
sg71
g3577
sg64
(lp4055
g57
(g78
g59
NtRp4056
(dp4057
g62
(dp4058
g82
g83
ssg71
g4052
sg64
(lp4059
S'menu'
p4060
asbag57
(g78
g59
NtRp4061
(dp4062
g62
(dp4063
g89
g90
ssg71
g4052
sg64
(lp4064
S':'
asbag57
(g78
g59
NtRp4065
(dp4066
g62
(dp4067
sg71
g4052
sg64
(lp4068
g57
(g58
g59
NtRp4069
(dp4070
g62
(dp4071
g70
I5
ssg71
g4065
sg64
(lp4072
g57
(g66
g59
NtRp4073
(dp4074
g62
(dp4075
g70
I4
ssg71
Nsg64
(lp4076
g57
(g73
g59
NtRp4077
(dp4078
g62
(dp4079
sg71
g4073
sg64
(lp4080
g57
(g78
g59
NtRp4081
(dp4082
g62
(dp4083
sg71
g4077
sg64
(lp4084
g57
(g58
g59
NtRp4085
(dp4086
g62
(dp4087
g70
I4
ssg71
g4081
sg64
(lp4088
g57
(g66
g59
NtRp4089
(dp4090
g62
(dp4091
g70
I3
ssg71
Nsg64
(lp4092
g57
(g73
g59
NtRp4093
(dp4094
g62
(dp4095
sg71
g4089
sg64
(lp4096
g57
(g78
g59
NtRp4097
(dp4098
g62
(dp4099
sg71
g4093
sg64
(lp4100
g57
(g58
g59
NtRp4101
(dp4102
g62
(dp4103
g70
I3
ssg71
g4097
sg64
(lp4104
cgluon.languages
lazyT_unpickle
p4105
(S's\x04\x00\x00\x00Home'
tRp4106
asbasbasbag57
(g73
g59
NtRp4107
(dp4108
g62
(dp4109
sg71
g4089
sg64
(lp4110
g57
(g78
g59
NtRp4111
(dp4112
g62
(dp4113
sg71
g4107
sg64
(lp4114
g57
(g58
g59
NtRp4115
(dp4116
g62
(dp4117
g70
I3
ssg71
g4111
sg64
(lp4118
g100
asbasbasbag57
(g73
g59
NtRp4119
(dp4120
g62
(dp4121
sg71
g4089
sg64
(lp4122
g57
(g78
g59
NtRp4123
(dp4124
g62
(dp4125
sg71
g4119
sg64
(lp4126
g57
(g58
g59
NtRp4127
(dp4128
g62
(dp4129
g70
I3
ssg71
g4123
sg64
(lp4130
S'/hw4/teacher/index'
p4131
asbasbasbag57
(g73
g59
NtRp4132
(dp4133
g62
(dp4134
sg71
g4089
sg64
(lp4135
g57
(g78
g59
NtRp4136
(dp4137
g62
(dp4138
sg71
g4132
sg64
(lp4139
g57
(g58
g59
NtRp4140
(dp4141
g62
(dp4142
g70
I3
ssg71
g4136
sg64
(lp4143
g57
(g66
g59
NtRp4144
(dp4145
g62
(dp4146
g70
I2
ssg71
Nsg64
(lp4147
sbasbasbasbasbasbasbasbasbasbasbasbag57
(g73
g59
NtRp4148
(dp4149
g62
(dp4150
sg71
g3577
sg64
(lp4151
g57
(g78
g59
NtRp4152
(dp4153
g62
(dp4154
g82
g83
ssg71
g4148
sg64
(lp4155
S'meta'
p4156
asbag57
(g78
g59
NtRp4157
(dp4158
g62
(dp4159
g89
g90
ssg71
g4148
sg64
(lp4160
S':'
asbag57
(g78
g59
NtRp4161
(dp4162
g62
(dp4163
sg71
g4148
sg64
(lp4164
g57
(g58
g59
NtRp4165
(dp4166
g62
(dp4167
g70
I5
ssg71
g4161
sg64
(lp4168
g57
(g66
g59
NtRp4169
(dp4170
g62
(dp4171
g70
I4
ssg71
Nsg64
(lp4172
g57
(g73
g59
NtRp4173
(dp4174
g62
(dp4175
sg71
g4169
sg64
(lp4176
g57
(g78
g59
NtRp4177
(dp4178
g62
(dp4179
g82
g83
ssg71
g4173
sg64
(lp4180
S'author'
p4181
asbag57
(g78
g59
NtRp4182
(dp4183
g62
(dp4184
g89
g90
ssg71
g4173
sg64
(lp4185
S':'
asbag57
(g78
g59
NtRp4186
(dp4187
g62
(dp4188
sg71
g4173
sg64
(lp4189
g57
(g58
g59
NtRp4190
(dp4191
g62
(dp4192
g70
I4
ssg71
g4186
sg64
(lp4193
S''
asbasbasbag57
(g73
g59
NtRp4194
(dp4195
g62
(dp4196
sg71
g4169
sg64
(lp4197
g57
(g78
g59
NtRp4198
(dp4199
g62
(dp4200
g82
g83
ssg71
g4194
sg64
(lp4201
S'description'
p4202
asbag57
(g78
g59
NtRp4203
(dp4204
g62
(dp4205
g89
g90
ssg71
g4194
sg64
(lp4206
S':'
asbag57
(g78
g59
NtRp4207
(dp4208
g62
(dp4209
sg71
g4194
sg64
(lp4210
g57
(g58
g59
NtRp4211
(dp4212
g62
(dp4213
g70
I4
ssg71
g4207
sg64
(lp4214
S''
asbasbasbag57
(g73
g59
NtRp4215
(dp4216
g62
(dp4217
sg71
g4169
sg64
(lp4218
g57
(g78
g59
NtRp4219
(dp4220
g62
(dp4221
g82
g83
ssg71
g4215
sg64
(lp4222
S'generator'
p4223
asbag57
(g78
g59
NtRp4224
(dp4225
g62
(dp4226
g89
g90
ssg71
g4215
sg64
(lp4227
S':'
asbag57
(g78
g59
NtRp4228
(dp4229
g62
(dp4230
sg71
g4215
sg64
(lp4231
g57
(g58
g59
NtRp4232
(dp4233
g62
(dp4234
g70
I4
ssg71
g4228
sg64
(lp4235
S''
asbasbasbag57
(g73
g59
NtRp4236
(dp4237
g62
(dp4238
sg71
g4169
sg64
(lp4239
g57
(g78
g59
NtRp4240
(dp4241
g62
(dp4242
g82
g83
ssg71
g4236
sg64
(lp4243
S'keywords'
p4244
asbag57
(g78
g59
NtRp4245
(dp4246
g62
(dp4247
g89
g90
ssg71
g4236
sg64
(lp4248
S':'
asbag57
(g78
g59
NtRp4249
(dp4250
g62
(dp4251
sg71
g4236
sg64
(lp4252
g57
(g58
g59
NtRp4253
(dp4254
g62
(dp4255
g70
I4
ssg71
g4249
sg64
(lp4256
S''
asbasbasbasbasbasbasbag57
(g73
g59
NtRp4257
(dp4258
g62
(dp4259
sg71
g3577
sg64
(lp4260
g57
(g78
g59
NtRp4261
(dp4262
g62
(dp4263
g82
g83
ssg71
g4257
sg64
(lp4264
S'models_to_run'
p4265
asbag57
(g78
g59
NtRp4266
(dp4267
g62
(dp4268
g89
g90
ssg71
g4257
sg64
(lp4269
S':'
asbag57
(g78
g59
NtRp4270
(dp4271
g62
(dp4272
sg71
g4257
sg64
(lp4273
g57
(g58
g59
NtRp4274
(dp4275
g62
(dp4276
g70
I5
ssg71
g4270
sg64
(lp4277
g57
(g66
g59
NtRp4278
(dp4279
g62
(dp4280
g70
I4
ssg71
Nsg64
(lp4281
g57
(g73
g59
NtRp4282
(dp4283
g62
(dp4284
sg71
g4278
sg64
(lp4285
g57
(g78
g59
NtRp4286
(dp4287
g62
(dp4288
sg71
g4282
sg64
(lp4289
g57
(g58
g59
NtRp4290
(dp4291
g62
(dp4292
g70
I4
ssg71
g4286
sg64
(lp4293
S'^\\w+\\.py$'
p4294
asbasbasbag57
(g73
g59
NtRp4295
(dp4296
g62
(dp4297
sg71
g4278
sg64
(lp4298
g57
(g78
g59
NtRp4299
(dp4300
g62
(dp4301
sg71
g4295
sg64
(lp4302
g57
(g58
g59
NtRp4303
(dp4304
g62
(dp4305
g70
I4
ssg71
g4299
sg64
(lp4306
S'^teacher/\\w+\\.py$'
p4307
asbasbasbag57
(g73
g59
NtRp4308
(dp4309
g62
(dp4310
sg71
g4278
sg64
(lp4311
g57
(g78
g59
NtRp4312
(dp4313
g62
(dp4314
sg71
g4308
sg64
(lp4315
g57
(g58
g59
NtRp4316
(dp4317
g62
(dp4318
g70
I4
ssg71
g4312
sg64
(lp4319
S'^teacher/pigai/\\w+\\.py$'
p4320
asbasbasbasbasbasbasbag57
(g73
g59
NtRp4321
(dp4322
g62
(dp4323
sg71
g3577
sg64
(lp4324
g57
(g78
g59
NtRp4325
(dp4326
g62
(dp4327
g82
g83
ssg71
g4321
sg64
(lp4328
S'postprocessing'
p4329
asbag57
(g78
g59
NtRp4330
(dp4331
g62
(dp4332
g89
g90
ssg71
g4321
sg64
(lp4333
S':'
asbag57
(g78
g59
NtRp4334
(dp4335
g62
(dp4336
sg71
g4321
sg64
(lp4337
g57
(g58
g59
NtRp4338
(dp4339
g62
(dp4340
g70
I5
ssg71
g4334
sg64
(lp4341
g57
(g66
g59
NtRp4342
(dp4343
g62
(dp4344
g70
I4
ssg71
Nsg64
(lp4345
sbasbasbasbag57
(g73
g59
NtRp4346
(dp4347
g62
(dp4348
sg71
g3577
sg64
(lp4349
g57
(g78
g59
NtRp4350
(dp4351
g62
(dp4352
g82
g83
ssg71
g4346
sg64
(lp4353
S'session_cookie_expires'
p4354
asbag57
(g78
g59
NtRp4355
(dp4356
g62
(dp4357
g89
g90
ssg71
g4346
sg64
(lp4358
S':'
asbag57
(g78
g59
NtRp4359
(dp4360
g62
(dp4361
sg71
g4346
sg64
(lp4362
g57
(g58
g59
NtRp4363
(dp4364
g62
(dp4365
g70
I5
ssg71
g4359
sg64
(lp4366
S'None'
p4367
asbasbasbag57
(g73
g59
NtRp4368
(dp4369
g62
(dp4370
sg71
g3577
sg64
(lp4371
g57
(g78
g59
NtRp4372
(dp4373
g62
(dp4374
g82
g83
ssg71
g4368
sg64
(lp4375
S'session_data_name'
p4376
asbag57
(g78
g59
NtRp4377
(dp4378
g62
(dp4379
g89
g90
ssg71
g4368
sg64
(lp4380
S':'
asbag57
(g78
g59
NtRp4381
(dp4382
g62
(dp4383
sg71
g4368
sg64
(lp4384
g57
(g58
g59
NtRp4385
(dp4386
g62
(dp4387
g70
I5
ssg71
g4381
sg64
(lp4388
S'session_data_hw4'
p4389
asbasbasbag57
(g73
g59
NtRp4390
(dp4391
g62
(dp4392
sg71
g3577
sg64
(lp4393
g57
(g78
g59
NtRp4394
(dp4395
g62
(dp4396
g82
g83
ssg71
g4390
sg64
(lp4397
S'session_file'
p4398
asbag57
(g78
g59
NtRp4399
(dp4400
g62
(dp4401
g89
g90
ssg71
g4390
sg64
(lp4402
S':'
asbag57
(g78
g59
NtRp4403
(dp4404
g62
(dp4405
sg71
g4390
sg64
(lp4406
g57
(g58
g59
NtRp4407
(dp4408
g62
(dp4409
g70
I5
ssg71
g4403
sg64
(lp4410
S"<open file 'C:\\Python27\\web2py\\applications\\hw4\\sessions\\127.0.0.1-187b8bdf-a2bd-43f7-b0a1-ab75394324e0', mode 'rb+' at 0x05886E90>"
p4411
asbasbasbag57
(g73
g59
NtRp4412
(dp4413
g62
(dp4414
sg71
g3577
sg64
(lp4415
g57
(g78
g59
NtRp4416
(dp4417
g62
(dp4418
g82
g83
ssg71
g4412
sg64
(lp4419
S'session_filename'
p4420
asbag57
(g78
g59
NtRp4421
(dp4422
g62
(dp4423
g89
g90
ssg71
g4412
sg64
(lp4424
S':'
asbag57
(g78
g59
NtRp4425
(dp4426
g62
(dp4427
sg71
g4412
sg64
(lp4428
g57
(g58
g59
NtRp4429
(dp4430
g62
(dp4431
g70
I5
ssg71
g4425
sg64
(lp4432
S'C:\\Python27\\web2py\\applications\\hw4\\sessions\\127.0.0.1-187b8bdf-a2bd-43f7-b0a1-ab75394324e0'
p4433
asbasbasbag57
(g73
g59
NtRp4434
(dp4435
g62
(dp4436
sg71
g3577
sg64
(lp4437
g57
(g78
g59
NtRp4438
(dp4439
g62
(dp4440
g82
g83
ssg71
g4434
sg64
(lp4441
S'session_id'
p4442
asbag57
(g78
g59
NtRp4443
(dp4444
g62
(dp4445
g89
g90
ssg71
g4434
sg64
(lp4446
S':'
asbag57
(g78
g59
NtRp4447
(dp4448
g62
(dp4449
sg71
g4434
sg64
(lp4450
g57
(g58
g59
NtRp4451
(dp4452
g62
(dp4453
g70
I5
ssg71
g4447
sg64
(lp4454
g487
asbasbasbag57
(g73
g59
NtRp4455
(dp4456
g62
(dp4457
sg71
g3577
sg64
(lp4458
g57
(g78
g59
NtRp4459
(dp4460
g62
(dp4461
g82
g83
ssg71
g4455
sg64
(lp4462
S'session_id_name'
p4463
asbag57
(g78
g59
NtRp4464
(dp4465
g62
(dp4466
g89
g90
ssg71
g4455
sg64
(lp4467
S':'
asbag57
(g78
g59
NtRp4468
(dp4469
g62
(dp4470
sg71
g4455
sg64
(lp4471
g57
(g58
g59
NtRp4472
(dp4473
g62
(dp4474
g70
I5
ssg71
g4468
sg64
(lp4475
g3634
asbasbasbag57
(g73
g59
NtRp4476
(dp4477
g62
(dp4478
sg71
g3577
sg64
(lp4479
g57
(g78
g59
NtRp4480
(dp4481
g62
(dp4482
g82
g83
ssg71
g4476
sg64
(lp4483
S'session_locked'
p4484
asbag57
(g78
g59
NtRp4485
(dp4486
g62
(dp4487
g89
g90
ssg71
g4476
sg64
(lp4488
S':'
asbag57
(g78
g59
NtRp4489
(dp4490
g62
(dp4491
sg71
g4476
sg64
(lp4492
g57
(g58
g59
NtRp4493
(dp4494
g62
(dp4495
g70
I5
ssg71
g4489
sg64
(lp4496
g1617
asbasbasbag57
(g73
g59
NtRp4497
(dp4498
g62
(dp4499
sg71
g3577
sg64
(lp4500
g57
(g78
g59
NtRp4501
(dp4502
g62
(dp4503
g82
g83
ssg71
g4497
sg64
(lp4504
S'session_new'
p4505
asbag57
(g78
g59
NtRp4506
(dp4507
g62
(dp4508
g89
g90
ssg71
g4497
sg64
(lp4509
S':'
asbag57
(g78
g59
NtRp4510
(dp4511
g62
(dp4512
sg71
g4497
sg64
(lp4513
g57
(g58
g59
NtRp4514
(dp4515
g62
(dp4516
g70
I5
ssg71
g4510
sg64
(lp4517
g100
asbasbasbag57
(g73
g59
NtRp4518
(dp4519
g62
(dp4520
sg71
g3577
sg64
(lp4521
g57
(g78
g59
NtRp4522
(dp4523
g62
(dp4524
g82
g83
ssg71
g4518
sg64
(lp4525
S'session_storage_type'
p4526
asbag57
(g78
g59
NtRp4527
(dp4528
g62
(dp4529
g89
g90
ssg71
g4518
sg64
(lp4530
S':'
asbag57
(g78
g59
NtRp4531
(dp4532
g62
(dp4533
sg71
g4518
sg64
(lp4534
g57
(g58
g59
NtRp4535
(dp4536
g62
(dp4537
g70
I5
ssg71
g4531
sg64
(lp4538
g3069
asbasbasbag57
(g73
g59
NtRp4539
(dp4540
g62
(dp4541
sg71
g3577
sg64
(lp4542
g57
(g78
g59
NtRp4543
(dp4544
g62
(dp4545
g82
g83
ssg71
g4539
sg64
(lp4546
S'status'
p4547
asbag57
(g78
g59
NtRp4548
(dp4549
g62
(dp4550
g89
g90
ssg71
g4539
sg64
(lp4551
S':'
asbag57
(g78
g59
NtRp4552
(dp4553
g62
(dp4554
sg71
g4539
sg64
(lp4555
g57
(g58
g59
NtRp4556
(dp4557
g62
(dp4558
g70
I5
ssg71
g4552
sg64
(lp4559
S'200'
p4560
asbasbasbag57
(g73
g59
NtRp4561
(dp4562
g62
(dp4563
sg71
g3577
sg64
(lp4564
g57
(g78
g59
NtRp4565
(dp4566
g62
(dp4567
g82
g83
ssg71
g4561
sg64
(lp4568
S'subtitle'
p4569
asbag57
(g78
g59
NtRp4570
(dp4571
g62
(dp4572
g89
g90
ssg71
g4561
sg64
(lp4573
S':'
asbag57
(g78
g59
NtRp4574
(dp4575
g62
(dp4576
sg71
g4561
sg64
(lp4577
g57
(g58
g59
NtRp4578
(dp4579
g62
(dp4580
g70
I5
ssg71
g4574
sg64
(lp4581
g4105
(S't\x00\x00\x00\x00'
tRp4582
asbasbasbag57
(g73
g59
NtRp4583
(dp4584
g62
(dp4585
sg71
g3577
sg64
(lp4586
g57
(g78
g59
NtRp4587
(dp4588
g62
(dp4589
g82
g83
ssg71
g4583
sg64
(lp4590
S'title'
p4591
asbag57
(g78
g59
NtRp4592
(dp4593
g62
(dp4594
g89
g90
ssg71
g4583
sg64
(lp4595
S':'
asbag57
(g78
g59
NtRp4596
(dp4597
g62
(dp4598
sg71
g4583
sg64
(lp4599
g57
(g58
g59
NtRp4600
(dp4601
g62
(dp4602
g70
I5
ssg71
g4596
sg64
(lp4603
S'\xe5\xae\x81\xe6\xb3\xa2\xe5\xa4\x96\xe5\x9b\xbd\xe8\xaf\xad\xe5\xad\xa6\xe6\xa0\xa1\xe4\xbf\xa1\xe6\x81\xaf\xe6\x8a\x80\xe6\x9c\xaf\xe8\xaf\xbe'
p4604
asbasbasbag57
(g73
g59
NtRp4605
(dp4606
g62
(dp4607
sg71
g3577
sg64
(lp4608
g57
(g78
g59
NtRp4609
(dp4610
g62
(dp4611
g82
g83
ssg71
g4605
sg64
(lp4612
S'view'
p4613
asbag57
(g78
g59
NtRp4614
(dp4615
g62
(dp4616
g89
g90
ssg71
g4605
sg64
(lp4617
S':'
asbag57
(g78
g59
NtRp4618
(dp4619
g62
(dp4620
sg71
g4605
sg64
(lp4621
g57
(g58
g59
NtRp4622
(dp4623
g62
(dp4624
g70
I5
ssg71
g4618
sg64
(lp4625
S'teacher/pigai.html'
p4626
asbasbasbasbasbsS'locals'
p4627
(dp4628
S'form'
p4629
S'<gluon.sqlhtml.SQLFORM object>'
p4630
sS'keshi_id'
p4631
S"'1'"
p4632
sS'row'
p4633
S"<Row {'wenjian': 'zuoye.wenjian.9e6b5136a9b7e0e1...'defen': None, 'keshi': 1, 'zuozhe': 3, 'id': 1}>"
p4634
sssS'traceback'
p4635
S'Traceback (most recent call last):\n  File "C:\\Python27\\web2py\\gluon\\restricted.py", line 212, in restricted\n    exec ccode in environment\n  File "C:\\Python27\\web2py\\applications\\hw4\\controllers/teacher.py", line 72, in <module>\n  File "C:\\Python27\\web2py\\gluon\\globals.py", line 193, in <lambda>\n    self._caller = lambda f: f()\n  File "C:\\Python27\\web2py\\gluon\\tools.py", line 2929, in f\n    return action(*a, **b)\n  File "C:\\Python27\\web2py\\applications\\hw4\\controllers/teacher.py", line 62, in pigai\n    return dict(form=form,vals=vals,req=request)\nNameError: global name \'vals\' is not defined\n'
p4636
s.