(dp1
S'output'
p2
S"<type 'exceptions.SyntaxError'> keyword can't be an expression (controllers/teacher.py, line 3)"
p3
sS'layer'
p4
S'C:\\Python27\\web2py\\applications\\hw4\\controllers/teacher.py'
p5
sS'code'
p6
S'# coding: utf8\n# \xe5\xb0\x9d\xe8\xaf\x95\n@auth.requires(requires_membership(\'teacher\')=True or request.client==\'127.0.0.1\', requires_login=True)\ndef index(): return dict(message="hello from teacher.py")\n\n@auth.requires(requires_membership(\'teacher\')=True or request.client==\'127.0.0.1\', requires_login=True)\ndef student_manage():\n    form = SQLFORM.grid(db.auth_user)\n    return dict(form=form)\n\n@auth.requires(requires_membership(\'teacher\')=True or request.client==\'127.0.0.1\', requires_login=True)\ndef course_manage():\n    form = SQLFORM.smartgrid(db.course)\n    return dict(form=form)\n\n@auth.requires(requires_membership(\'teacher\')=True or request.client==\'127.0.0.1\', requires_login=True)\ndef keshi_manage():\n    form = SQLFORM.smartgrid(db.keshi)\n    return dict(form=form)   \n\n@auth.requires(requires_membership(\'teacher\')=True or request.client==\'127.0.0.1\', requires_login=True)\ndef timu_manage():\n    form = SQLFORM.smartgrid(db.timu)\n    return dict(form=form)      \n \n@auth.requires(requires_membership(\'teacher\')=True or request.client==\'127.0.0.1\', requires_login=True)\ndef lianxi_manage():\n    form = SQLFORM.smartgrid(db.lianxi)\n    return dict(form=form)      \n\n@auth.requires(requires_membership(\'teacher\')=True or request.client==\'127.0.0.1\', requires_login=True)\ndef zuoti_manage():\n    form = SQLFORM.smartgrid(db.zuoti)\n    return  dict(form=form)\n\n@auth.requires(requires_membership(\'teacher\')=True or request.client==\'127.0.0.1\', requires_login=True)\ndef zuoye_manage():\n    form = SQLFORM.smartgrid(db.zuoye)\n    return  dict(form=form)\n\n@auth.requires(requires_membership(\'teacher\')=True or request.client==\'127.0.0.1\', requires_login=True)\ndef defen_manage():\n    form = SQLFORM.smartgrid(db.defen)\n    return  dict(form=form)\n\n@auth.requires(requires_membership(\'teacher\')=True or request.client==\'127.0.0.1\', requires_login=True)\ndef wangpan_manage():\n    form = SQLFORM.smartgrid(db.wangpan)\n    return  dict(form=form)\n\nresponse._vars=response._caller(index)\n'
p7
sS'snapshot'
p8
(dp9
S'exception'
p10
(dp11
S'__getslice__'
p12
S"<method-wrapper '__getslice__' of exceptions.SyntaxError object>"
p13
sS'text'
p14
S'"@auth.requires(requires_membership(\'teacher\')=Tr...equest.client==\'127.0.0.1\', requires_login=True)\\n"'
p15
sS'__str__'
p16
S"<method-wrapper '__str__' of exceptions.SyntaxError object>"
p17
sS'__reduce__'
p18
S'<built-in method __reduce__ of exceptions.SyntaxError object>'
p19
sS'__dict__'
p20
S'{}'
p21
sS'__sizeof__'
p22
S'<built-in method __sizeof__ of exceptions.SyntaxError object>'
p23
sS'__init__'
p24
S"<method-wrapper '__init__' of exceptions.SyntaxError object>"
p25
sS'__setattr__'
p26
S"<method-wrapper '__setattr__' of exceptions.SyntaxError object>"
p27
sS'__reduce_ex__'
p28
S'<built-in method __reduce_ex__ of exceptions.SyntaxError object>'
p29
sS'__new__'
p30
S'<built-in method __new__ of type object>'
p31
sS'__format__'
p32
S'<built-in method __format__ of exceptions.SyntaxError object>'
p33
sS'__class__'
p34
S"<type 'exceptions.SyntaxError'>"
p35
sS'filename'
p36
S"r'C:\\Python27\\web2py\\applications\\hw4\\controllers/teacher.py'"
p37
sS'lineno'
p38
S'3'
sS'msg'
p39
S'"keyword can\'t be an expression"'
p40
sS'__doc__'
p41
S"'Invalid syntax.'"
p42
sS'__getitem__'
p43
S"<method-wrapper '__getitem__' of exceptions.SyntaxError object>"
p44
sS'__setstate__'
p45
S'<built-in method __setstate__ of exceptions.SyntaxError object>'
p46
sS'__getattribute__'
p47
S"<method-wrapper '__getattribute__' of exceptions.SyntaxError object>"
p48
sS'print_file_and_line'
p49
S'None'
p50
sS'args'
p51
S'("keyword can\'t be an expression", (r\'C:\\Python27\\web2py\\applications\\hw4\\controllers/teacher.py\', 3, None, "@auth.requires(requires_membership(\'teacher\')=Tr...equest.client==\'127.0.0.1\', requires_login=True)\\n"))'
p52
sS'__subclasshook__'
p53
S'<built-in method __subclasshook__ of type object>'
p54
sS'offset'
p55
S'None'
p56
sS'__unicode__'
p57
S'<built-in method __unicode__ of exceptions.SyntaxError object>'
p58
sS'__delattr__'
p59
S"<method-wrapper '__delattr__' of exceptions.SyntaxError object>"
p60
sS'__repr__'
p61
S"<method-wrapper '__repr__' of exceptions.SyntaxError object>"
p62
sS'__hash__'
p63
S"<method-wrapper '__hash__' of exceptions.SyntaxError object>"
p64
ssS'evalue'
p65
S"keyword can't be an expression (controllers/teacher.py, line 3)"
p66
sS'request'
p67
ccopy_reg
_reconstructor
p68
(cgluon.html
BEAUTIFY
p69
c__builtin__
object
p70
NtRp71
(dp72
S'attributes'
p73
(dp74
sS'components'
p75
(lp76
g68
(cgluon.html
TABLE
p77
g70
NtRp78
(dp79
g73
(dp80
S'level'
p81
I5
ssS'parent'
p82
Nsg75
(lp83
g68
(cgluon.html
TR
p84
g70
NtRp85
(dp86
g73
(dp87
sg82
g78
sg75
(lp88
g68
(cgluon.html
TD
p89
g70
NtRp90
(dp91
g73
(dp92
S'_style'
p93
S'font-weight:bold;vertical-align:top'
p94
ssg82
g85
sg75
(lp95
S'ajax'
p96
asbag68
(g89
g70
NtRp97
(dp98
g73
(dp99
S'_valign'
p100
S'top'
p101
ssg82
g85
sg75
(lp102
S':'
asbag68
(g89
g70
NtRp103
(dp104
g73
(dp105
sg82
g85
sg75
(lp106
g68
(g69
g70
NtRp107
(dp108
g73
(dp109
g81
I5
ssg82
g103
sg75
(lp110
S'False'
p111
asbasbasbag68
(g84
g70
NtRp112
(dp113
g73
(dp114
sg82
g78
sg75
(lp115
g68
(g89
g70
NtRp116
(dp117
g73
(dp118
g93
g94
ssg82
g112
sg75
(lp119
S'application'
p120
asbag68
(g89
g70
NtRp121
(dp122
g73
(dp123
g100
g101
ssg82
g112
sg75
(lp124
S':'
asbag68
(g89
g70
NtRp125
(dp126
g73
(dp127
sg82
g112
sg75
(lp128
g68
(g69
g70
NtRp129
(dp130
g73
(dp131
g81
I5
ssg82
g125
sg75
(lp132
S'hw4'
p133
asbasbasbag68
(g84
g70
NtRp134
(dp135
g73
(dp136
sg82
g78
sg75
(lp137
g68
(g89
g70
NtRp138
(dp139
g73
(dp140
g93
g94
ssg82
g134
sg75
(lp141
g51
asbag68
(g89
g70
NtRp142
(dp143
g73
(dp144
g100
g101
ssg82
g134
sg75
(lp145
S':'
asbag68
(g89
g70
NtRp146
(dp147
g73
(dp148
sg82
g134
sg75
(lp149
g68
(g69
g70
NtRp150
(dp151
g73
(dp152
g81
I5
ssg82
g146
sg75
(lp153
g68
(g77
g70
NtRp154
(dp155
g73
(dp156
g81
I4
ssg82
Nsg75
(lp157
sbasbasbasbag68
(g84
g70
NtRp158
(dp159
g73
(dp160
sg82
g78
sg75
(lp161
g68
(g89
g70
NtRp162
(dp163
g73
(dp164
g93
g94
ssg82
g158
sg75
(lp165
S'body'
p166
asbag68
(g89
g70
NtRp167
(dp168
g73
(dp169
g100
g101
ssg82
g158
sg75
(lp170
S':'
asbag68
(g89
g70
NtRp171
(dp172
g73
(dp173
sg82
g158
sg75
(lp174
g68
(g69
g70
NtRp175
(dp176
g73
(dp177
g81
I5
ssg82
g171
sg75
(lp178
S'<cStringIO.StringO object at 0x057388C0>'
p179
asbasbasbag68
(g84
g70
NtRp180
(dp181
g73
(dp182
sg82
g78
sg75
(lp183
g68
(g89
g70
NtRp184
(dp185
g73
(dp186
g93
g94
ssg82
g180
sg75
(lp187
S'cid'
p188
asbag68
(g89
g70
NtRp189
(dp190
g73
(dp191
g100
g101
ssg82
g180
sg75
(lp192
S':'
asbag68
(g89
g70
NtRp193
(dp194
g73
(dp195
sg82
g180
sg75
(lp196
g68
(g69
g70
NtRp197
(dp198
g73
(dp199
g81
I5
ssg82
g193
sg75
(lp200
S'None'
p201
asbasbasbag68
(g84
g70
NtRp202
(dp203
g73
(dp204
sg82
g78
sg75
(lp205
g68
(g89
g70
NtRp206
(dp207
g73
(dp208
g93
g94
ssg82
g202
sg75
(lp209
S'client'
p210
asbag68
(g89
g70
NtRp211
(dp212
g73
(dp213
g100
g101
ssg82
g202
sg75
(lp214
S':'
asbag68
(g89
g70
NtRp215
(dp216
g73
(dp217
sg82
g202
sg75
(lp218
g68
(g69
g70
NtRp219
(dp220
g73
(dp221
g81
I5
ssg82
g215
sg75
(lp222
S'127.0.0.1'
p223
asbasbasbag68
(g84
g70
NtRp224
(dp225
g73
(dp226
sg82
g78
sg75
(lp227
g68
(g89
g70
NtRp228
(dp229
g73
(dp230
g93
g94
ssg82
g224
sg75
(lp231
S'controller'
p232
asbag68
(g89
g70
NtRp233
(dp234
g73
(dp235
g100
g101
ssg82
g224
sg75
(lp236
S':'
asbag68
(g89
g70
NtRp237
(dp238
g73
(dp239
sg82
g224
sg75
(lp240
g68
(g69
g70
NtRp241
(dp242
g73
(dp243
g81
I5
ssg82
g237
sg75
(lp244
S'teacher'
p245
asbasbasbag68
(g84
g70
NtRp246
(dp247
g73
(dp248
sg82
g78
sg75
(lp249
g68
(g89
g70
NtRp250
(dp251
g73
(dp252
g93
g94
ssg82
g246
sg75
(lp253
S'cookies'
p254
asbag68
(g89
g70
NtRp255
(dp256
g73
(dp257
g100
g101
ssg82
g246
sg75
(lp258
S':'
asbag68
(g89
g70
NtRp259
(dp260
g73
(dp261
sg82
g246
sg75
(lp262
g68
(g69
g70
NtRp263
(dp264
g73
(dp265
g81
I5
ssg82
g259
sg75
(lp266
g68
(g77
g70
NtRp267
(dp268
g73
(dp269
g81
I4
ssg82
Nsg75
(lp270
g68
(g84
g70
NtRp271
(dp272
g73
(dp273
sg82
g267
sg75
(lp274
g68
(g89
g70
NtRp275
(dp276
g73
(dp277
g93
g94
ssg82
g271
sg75
(lp278
S'session_id_admin'
p279
asbag68
(g89
g70
NtRp280
(dp281
g73
(dp282
g100
g101
ssg82
g271
sg75
(lp283
S':'
asbag68
(g89
g70
NtRp284
(dp285
g73
(dp286
sg82
g271
sg75
(lp287
g68
(g69
g70
NtRp288
(dp289
g73
(dp290
g81
I4
ssg82
g284
sg75
(lp291
S'127.0.0.1-040c41f2-b876-42e9-978e-9a080de27126'
p292
ag68
(g77
g70
NtRp293
(dp294
g73
(dp295
g81
I3
ssg82
Nsg75
(lp296
g68
(g84
g70
NtRp297
(dp298
g73
(dp299
sg82
g293
sg75
(lp300
g68
(g89
g70
NtRp301
(dp302
g73
(dp303
g93
g94
ssg82
g297
sg75
(lp304
S'comment'
p305
asbag68
(g89
g70
NtRp306
(dp307
g73
(dp308
g100
g101
ssg82
g297
sg75
(lp309
S':'
asbag68
(g89
g70
NtRp310
(dp311
g73
(dp312
sg82
g297
sg75
(lp313
g68
(g69
g70
NtRp314
(dp315
g73
(dp316
g81
I3
ssg82
g310
sg75
(lp317
S''
asbasbasbag68
(g84
g70
NtRp318
(dp319
g73
(dp320
sg82
g293
sg75
(lp321
g68
(g89
g70
NtRp322
(dp323
g73
(dp324
g93
g94
ssg82
g318
sg75
(lp325
S'domain'
p326
asbag68
(g89
g70
NtRp327
(dp328
g73
(dp329
g100
g101
ssg82
g318
sg75
(lp330
S':'
asbag68
(g89
g70
NtRp331
(dp332
g73
(dp333
sg82
g318
sg75
(lp334
g68
(g69
g70
NtRp335
(dp336
g73
(dp337
g81
I3
ssg82
g331
sg75
(lp338
S''
asbasbasbag68
(g84
g70
NtRp339
(dp340
g73
(dp341
sg82
g293
sg75
(lp342
g68
(g89
g70
NtRp343
(dp344
g73
(dp345
g93
g94
ssg82
g339
sg75
(lp346
S'expires'
p347
asbag68
(g89
g70
NtRp348
(dp349
g73
(dp350
g100
g101
ssg82
g339
sg75
(lp351
S':'
asbag68
(g89
g70
NtRp352
(dp353
g73
(dp354
sg82
g339
sg75
(lp355
g68
(g69
g70
NtRp356
(dp357
g73
(dp358
g81
I3
ssg82
g352
sg75
(lp359
S''
asbasbasbag68
(g84
g70
NtRp360
(dp361
g73
(dp362
sg82
g293
sg75
(lp363
g68
(g89
g70
NtRp364
(dp365
g73
(dp366
g93
g94
ssg82
g360
sg75
(lp367
S'httponly'
p368
asbag68
(g89
g70
NtRp369
(dp370
g73
(dp371
g100
g101
ssg82
g360
sg75
(lp372
S':'
asbag68
(g89
g70
NtRp373
(dp374
g73
(dp375
sg82
g360
sg75
(lp376
g68
(g69
g70
NtRp377
(dp378
g73
(dp379
g81
I3
ssg82
g373
sg75
(lp380
S''
asbasbasbag68
(g84
g70
NtRp381
(dp382
g73
(dp383
sg82
g293
sg75
(lp384
g68
(g89
g70
NtRp385
(dp386
g73
(dp387
g93
g94
ssg82
g381
sg75
(lp388
S'max-age'
p389
asbag68
(g89
g70
NtRp390
(dp391
g73
(dp392
g100
g101
ssg82
g381
sg75
(lp393
S':'
asbag68
(g89
g70
NtRp394
(dp395
g73
(dp396
sg82
g381
sg75
(lp397
g68
(g69
g70
NtRp398
(dp399
g73
(dp400
g81
I3
ssg82
g394
sg75
(lp401
S''
asbasbasbag68
(g84
g70
NtRp402
(dp403
g73
(dp404
sg82
g293
sg75
(lp405
g68
(g89
g70
NtRp406
(dp407
g73
(dp408
g93
g94
ssg82
g402
sg75
(lp409
S'path'
p410
asbag68
(g89
g70
NtRp411
(dp412
g73
(dp413
g100
g101
ssg82
g402
sg75
(lp414
S':'
asbag68
(g89
g70
NtRp415
(dp416
g73
(dp417
sg82
g402
sg75
(lp418
g68
(g69
g70
NtRp419
(dp420
g73
(dp421
g81
I3
ssg82
g415
sg75
(lp422
S''
asbasbasbag68
(g84
g70
NtRp423
(dp424
g73
(dp425
sg82
g293
sg75
(lp426
g68
(g89
g70
NtRp427
(dp428
g73
(dp429
g93
g94
ssg82
g423
sg75
(lp430
S'secure'
p431
asbag68
(g89
g70
NtRp432
(dp433
g73
(dp434
g100
g101
ssg82
g423
sg75
(lp435
S':'
asbag68
(g89
g70
NtRp436
(dp437
g73
(dp438
sg82
g423
sg75
(lp439
g68
(g69
g70
NtRp440
(dp441
g73
(dp442
g81
I3
ssg82
g436
sg75
(lp443
S''
asbasbasbag68
(g84
g70
NtRp444
(dp445
g73
(dp446
sg82
g293
sg75
(lp447
g68
(g89
g70
NtRp448
(dp449
g73
(dp450
g93
g94
ssg82
g444
sg75
(lp451
S'version'
p452
asbag68
(g89
g70
NtRp453
(dp454
g73
(dp455
g100
g101
ssg82
g444
sg75
(lp456
S':'
asbag68
(g89
g70
NtRp457
(dp458
g73
(dp459
sg82
g444
sg75
(lp460
g68
(g69
g70
NtRp461
(dp462
g73
(dp463
g81
I3
ssg82
g457
sg75
(lp464
S''
asbasbasbasbasbasbasbag68
(g84
g70
NtRp465
(dp466
g73
(dp467
sg82
g267
sg75
(lp468
g68
(g89
g70
NtRp469
(dp470
g73
(dp471
g93
g94
ssg82
g465
sg75
(lp472
S'session_id_hw4'
p473
asbag68
(g89
g70
NtRp474
(dp475
g73
(dp476
g100
g101
ssg82
g465
sg75
(lp477
S':'
asbag68
(g89
g70
NtRp478
(dp479
g73
(dp480
sg82
g465
sg75
(lp481
g68
(g69
g70
NtRp482
(dp483
g73
(dp484
g81
I4
ssg82
g478
sg75
(lp485
S'127.0.0.1-47db4407-5ca2-4b4f-b702-e73004465f15'
p486
ag68
(g77
g70
NtRp487
(dp488
g73
(dp489
g81
I3
ssg82
Nsg75
(lp490
g68
(g84
g70
NtRp491
(dp492
g73
(dp493
sg82
g487
sg75
(lp494
g68
(g89
g70
NtRp495
(dp496
g73
(dp497
g93
g94
ssg82
g491
sg75
(lp498
g305
asbag68
(g89
g70
NtRp499
(dp500
g73
(dp501
g100
g101
ssg82
g491
sg75
(lp502
S':'
asbag68
(g89
g70
NtRp503
(dp504
g73
(dp505
sg82
g491
sg75
(lp506
g68
(g69
g70
NtRp507
(dp508
g73
(dp509
g81
I3
ssg82
g503
sg75
(lp510
S''
asbasbasbag68
(g84
g70
NtRp511
(dp512
g73
(dp513
sg82
g487
sg75
(lp514
g68
(g89
g70
NtRp515
(dp516
g73
(dp517
g93
g94
ssg82
g511
sg75
(lp518
g326
asbag68
(g89
g70
NtRp519
(dp520
g73
(dp521
g100
g101
ssg82
g511
sg75
(lp522
S':'
asbag68
(g89
g70
NtRp523
(dp524
g73
(dp525
sg82
g511
sg75
(lp526
g68
(g69
g70
NtRp527
(dp528
g73
(dp529
g81
I3
ssg82
g523
sg75
(lp530
S''
asbasbasbag68
(g84
g70
NtRp531
(dp532
g73
(dp533
sg82
g487
sg75
(lp534
g68
(g89
g70
NtRp535
(dp536
g73
(dp537
g93
g94
ssg82
g531
sg75
(lp538
g347
asbag68
(g89
g70
NtRp539
(dp540
g73
(dp541
g100
g101
ssg82
g531
sg75
(lp542
S':'
asbag68
(g89
g70
NtRp543
(dp544
g73
(dp545
sg82
g531
sg75
(lp546
g68
(g69
g70
NtRp547
(dp548
g73
(dp549
g81
I3
ssg82
g543
sg75
(lp550
S''
asbasbasbag68
(g84
g70
NtRp551
(dp552
g73
(dp553
sg82
g487
sg75
(lp554
g68
(g89
g70
NtRp555
(dp556
g73
(dp557
g93
g94
ssg82
g551
sg75
(lp558
g368
asbag68
(g89
g70
NtRp559
(dp560
g73
(dp561
g100
g101
ssg82
g551
sg75
(lp562
S':'
asbag68
(g89
g70
NtRp563
(dp564
g73
(dp565
sg82
g551
sg75
(lp566
g68
(g69
g70
NtRp567
(dp568
g73
(dp569
g81
I3
ssg82
g563
sg75
(lp570
S''
asbasbasbag68
(g84
g70
NtRp571
(dp572
g73
(dp573
sg82
g487
sg75
(lp574
g68
(g89
g70
NtRp575
(dp576
g73
(dp577
g93
g94
ssg82
g571
sg75
(lp578
g389
asbag68
(g89
g70
NtRp579
(dp580
g73
(dp581
g100
g101
ssg82
g571
sg75
(lp582
S':'
asbag68
(g89
g70
NtRp583
(dp584
g73
(dp585
sg82
g571
sg75
(lp586
g68
(g69
g70
NtRp587
(dp588
g73
(dp589
g81
I3
ssg82
g583
sg75
(lp590
S''
asbasbasbag68
(g84
g70
NtRp591
(dp592
g73
(dp593
sg82
g487
sg75
(lp594
g68
(g89
g70
NtRp595
(dp596
g73
(dp597
g93
g94
ssg82
g591
sg75
(lp598
g410
asbag68
(g89
g70
NtRp599
(dp600
g73
(dp601
g100
g101
ssg82
g591
sg75
(lp602
S':'
asbag68
(g89
g70
NtRp603
(dp604
g73
(dp605
sg82
g591
sg75
(lp606
g68
(g69
g70
NtRp607
(dp608
g73
(dp609
g81
I3
ssg82
g603
sg75
(lp610
S''
asbasbasbag68
(g84
g70
NtRp611
(dp612
g73
(dp613
sg82
g487
sg75
(lp614
g68
(g89
g70
NtRp615
(dp616
g73
(dp617
g93
g94
ssg82
g611
sg75
(lp618
g431
asbag68
(g89
g70
NtRp619
(dp620
g73
(dp621
g100
g101
ssg82
g611
sg75
(lp622
S':'
asbag68
(g89
g70
NtRp623
(dp624
g73
(dp625
sg82
g611
sg75
(lp626
g68
(g69
g70
NtRp627
(dp628
g73
(dp629
g81
I3
ssg82
g623
sg75
(lp630
S''
asbasbasbag68
(g84
g70
NtRp631
(dp632
g73
(dp633
sg82
g487
sg75
(lp634
g68
(g89
g70
NtRp635
(dp636
g73
(dp637
g93
g94
ssg82
g631
sg75
(lp638
g452
asbag68
(g89
g70
NtRp639
(dp640
g73
(dp641
g100
g101
ssg82
g631
sg75
(lp642
S':'
asbag68
(g89
g70
NtRp643
(dp644
g73
(dp645
sg82
g631
sg75
(lp646
g68
(g69
g70
NtRp647
(dp648
g73
(dp649
g81
I3
ssg82
g643
sg75
(lp650
S''
asbasbasbasbasbasbasbag68
(g84
g70
NtRp651
(dp652
g73
(dp653
sg82
g267
sg75
(lp654
g68
(g89
g70
NtRp655
(dp656
g73
(dp657
g93
g94
ssg82
g651
sg75
(lp658
S'session_id_welcome'
p659
asbag68
(g89
g70
NtRp660
(dp661
g73
(dp662
g100
g101
ssg82
g651
sg75
(lp663
S':'
asbag68
(g89
g70
NtRp664
(dp665
g73
(dp666
sg82
g651
sg75
(lp667
g68
(g69
g70
NtRp668
(dp669
g73
(dp670
g81
I4
ssg82
g664
sg75
(lp671
S'127.0.0.1-9063a53c-65d7-44ea-bfb7-52c745d08152'
p672
ag68
(g77
g70
NtRp673
(dp674
g73
(dp675
g81
I3
ssg82
Nsg75
(lp676
g68
(g84
g70
NtRp677
(dp678
g73
(dp679
sg82
g673
sg75
(lp680
g68
(g89
g70
NtRp681
(dp682
g73
(dp683
g93
g94
ssg82
g677
sg75
(lp684
g305
asbag68
(g89
g70
NtRp685
(dp686
g73
(dp687
g100
g101
ssg82
g677
sg75
(lp688
S':'
asbag68
(g89
g70
NtRp689
(dp690
g73
(dp691
sg82
g677
sg75
(lp692
g68
(g69
g70
NtRp693
(dp694
g73
(dp695
g81
I3
ssg82
g689
sg75
(lp696
S''
asbasbasbag68
(g84
g70
NtRp697
(dp698
g73
(dp699
sg82
g673
sg75
(lp700
g68
(g89
g70
NtRp701
(dp702
g73
(dp703
g93
g94
ssg82
g697
sg75
(lp704
g326
asbag68
(g89
g70
NtRp705
(dp706
g73
(dp707
g100
g101
ssg82
g697
sg75
(lp708
S':'
asbag68
(g89
g70
NtRp709
(dp710
g73
(dp711
sg82
g697
sg75
(lp712
g68
(g69
g70
NtRp713
(dp714
g73
(dp715
g81
I3
ssg82
g709
sg75
(lp716
S''
asbasbasbag68
(g84
g70
NtRp717
(dp718
g73
(dp719
sg82
g673
sg75
(lp720
g68
(g89
g70
NtRp721
(dp722
g73
(dp723
g93
g94
ssg82
g717
sg75
(lp724
g347
asbag68
(g89
g70
NtRp725
(dp726
g73
(dp727
g100
g101
ssg82
g717
sg75
(lp728
S':'
asbag68
(g89
g70
NtRp729
(dp730
g73
(dp731
sg82
g717
sg75
(lp732
g68
(g69
g70
NtRp733
(dp734
g73
(dp735
g81
I3
ssg82
g729
sg75
(lp736
S''
asbasbasbag68
(g84
g70
NtRp737
(dp738
g73
(dp739
sg82
g673
sg75
(lp740
g68
(g89
g70
NtRp741
(dp742
g73
(dp743
g93
g94
ssg82
g737
sg75
(lp744
g368
asbag68
(g89
g70
NtRp745
(dp746
g73
(dp747
g100
g101
ssg82
g737
sg75
(lp748
S':'
asbag68
(g89
g70
NtRp749
(dp750
g73
(dp751
sg82
g737
sg75
(lp752
g68
(g69
g70
NtRp753
(dp754
g73
(dp755
g81
I3
ssg82
g749
sg75
(lp756
S''
asbasbasbag68
(g84
g70
NtRp757
(dp758
g73
(dp759
sg82
g673
sg75
(lp760
g68
(g89
g70
NtRp761
(dp762
g73
(dp763
g93
g94
ssg82
g757
sg75
(lp764
g389
asbag68
(g89
g70
NtRp765
(dp766
g73
(dp767
g100
g101
ssg82
g757
sg75
(lp768
S':'
asbag68
(g89
g70
NtRp769
(dp770
g73
(dp771
sg82
g757
sg75
(lp772
g68
(g69
g70
NtRp773
(dp774
g73
(dp775
g81
I3
ssg82
g769
sg75
(lp776
S''
asbasbasbag68
(g84
g70
NtRp777
(dp778
g73
(dp779
sg82
g673
sg75
(lp780
g68
(g89
g70
NtRp781
(dp782
g73
(dp783
g93
g94
ssg82
g777
sg75
(lp784
g410
asbag68
(g89
g70
NtRp785
(dp786
g73
(dp787
g100
g101
ssg82
g777
sg75
(lp788
S':'
asbag68
(g89
g70
NtRp789
(dp790
g73
(dp791
sg82
g777
sg75
(lp792
g68
(g69
g70
NtRp793
(dp794
g73
(dp795
g81
I3
ssg82
g789
sg75
(lp796
S''
asbasbasbag68
(g84
g70
NtRp797
(dp798
g73
(dp799
sg82
g673
sg75
(lp800
g68
(g89
g70
NtRp801
(dp802
g73
(dp803
g93
g94
ssg82
g797
sg75
(lp804
g431
asbag68
(g89
g70
NtRp805
(dp806
g73
(dp807
g100
g101
ssg82
g797
sg75
(lp808
S':'
asbag68
(g89
g70
NtRp809
(dp810
g73
(dp811
sg82
g797
sg75
(lp812
g68
(g69
g70
NtRp813
(dp814
g73
(dp815
g81
I3
ssg82
g809
sg75
(lp816
S''
asbasbasbag68
(g84
g70
NtRp817
(dp818
g73
(dp819
sg82
g673
sg75
(lp820
g68
(g89
g70
NtRp821
(dp822
g73
(dp823
g93
g94
ssg82
g817
sg75
(lp824
g452
asbag68
(g89
g70
NtRp825
(dp826
g73
(dp827
g100
g101
ssg82
g817
sg75
(lp828
S':'
asbag68
(g89
g70
NtRp829
(dp830
g73
(dp831
sg82
g817
sg75
(lp832
g68
(g69
g70
NtRp833
(dp834
g73
(dp835
g81
I3
ssg82
g829
sg75
(lp836
S''
asbasbasbasbasbasbasbasbasbasbasbag68
(g84
g70
NtRp837
(dp838
g73
(dp839
sg82
g78
sg75
(lp840
g68
(g89
g70
NtRp841
(dp842
g73
(dp843
g93
g94
ssg82
g837
sg75
(lp844
S'env'
p845
asbag68
(g89
g70
NtRp846
(dp847
g73
(dp848
g100
g101
ssg82
g837
sg75
(lp849
S':'
asbag68
(g89
g70
NtRp850
(dp851
g73
(dp852
sg82
g837
sg75
(lp853
g68
(g69
g70
NtRp854
(dp855
g73
(dp856
g81
I5
ssg82
g850
sg75
(lp857
g68
(g77
g70
NtRp858
(dp859
g73
(dp860
g81
I4
ssg82
Nsg75
(lp861
g68
(g84
g70
NtRp862
(dp863
g73
(dp864
sg82
g858
sg75
(lp865
g68
(g89
g70
NtRp866
(dp867
g73
(dp868
g93
g94
ssg82
g862
sg75
(lp869
S'app_folders'
p870
asbag68
(g89
g70
NtRp871
(dp872
g73
(dp873
g100
g101
ssg82
g862
sg75
(lp874
S':'
asbag68
(g89
g70
NtRp875
(dp876
g73
(dp877
sg82
g862
sg75
(lp878
g68
(g69
g70
NtRp879
(dp880
g73
(dp881
g81
I4
ssg82
g875
sg75
(lp882
S"set(['C:\\\\Python27\\\\web2py\\\\applications\\\\admin\\\\', 'C:\\\\Python27\\\\web2py\\\\applications\\\\welcome\\\\', 'C:\\\\Python27\\\\web2py\\\\applications\\\\hw4\\\\'])"
p883
asbasbasbag68
(g84
g70
NtRp884
(dp885
g73
(dp886
sg82
g858
sg75
(lp887
g68
(g89
g70
NtRp888
(dp889
g73
(dp890
g93
g94
ssg82
g884
sg75
(lp891
S'applications_parent'
p892
asbag68
(g89
g70
NtRp893
(dp894
g73
(dp895
g100
g101
ssg82
g884
sg75
(lp896
S':'
asbag68
(g89
g70
NtRp897
(dp898
g73
(dp899
sg82
g884
sg75
(lp900
g68
(g69
g70
NtRp901
(dp902
g73
(dp903
g81
I4
ssg82
g897
sg75
(lp904
S'C:\\Python27\\web2py'
p905
asbasbasbag68
(g84
g70
NtRp906
(dp907
g73
(dp908
sg82
g858
sg75
(lp909
g68
(g89
g70
NtRp910
(dp911
g73
(dp912
g93
g94
ssg82
g906
sg75
(lp913
S'cmd_args'
p914
asbag68
(g89
g70
NtRp915
(dp916
g73
(dp917
g100
g101
ssg82
g906
sg75
(lp918
S':'
asbag68
(g89
g70
NtRp919
(dp920
g73
(dp921
sg82
g906
sg75
(lp922
g68
(g69
g70
NtRp923
(dp924
g73
(dp925
g81
I4
ssg82
g919
sg75
(lp926
g68
(g77
g70
NtRp927
(dp928
g73
(dp929
g81
I3
ssg82
Nsg75
(lp930
sbasbasbasbag68
(g84
g70
NtRp931
(dp932
g73
(dp933
sg82
g858
sg75
(lp934
g68
(g89
g70
NtRp935
(dp936
g73
(dp937
g93
g94
ssg82
g931
sg75
(lp938
S'cmd_options'
p939
asbag68
(g89
g70
NtRp940
(dp941
g73
(dp942
g100
g101
ssg82
g931
sg75
(lp943
S':'
asbag68
(g89
g70
NtRp944
(dp945
g73
(dp946
sg82
g931
sg75
(lp947
g68
(g69
g70
NtRp948
(dp949
g73
(dp950
g81
I4
ssg82
g944
sg75
(lp951
S"<Values at 0x17c00f8: {'verbose': False, 'ip': '127.0.0.1', 'with_scheduler': False, 'ips': ['192.168.1.101'], 'shutdown_timeout': 5, 'taskbar': False, 'port': 8000, 'maxthreads': None, 'softcron': False, 'server_name': 'FREESKYC-5359CC', 'bpython': False, 'nogui': False, 'pid_filename': 'httpserver.pid', 'extcron': False, 'runcron': False, 'run_system_tests': False, 'test': None, 'folder': 'C:\\\\Python27\\\\web2py', 'config': '', 'import_models': False, 'winservice': '', 'shell': None, 'run': '', 'log_filename': 'httpserver.log', 'debuglevel': 30, 'args': [''], 'socket_timeout': 5, 'ssl_ca_certificate': None, 'scheduler': None, 'profiler_filename': None, 'ssl_private_key': '', 'scheduler_groups': None, 'password': '<ask>', 'request_queue_size': 5, 'ssl_certificate': '', 'cronjob': False, 'numthreads': None, 'quiet': False, 'interfaces': None, 'minthreads': None, 'timeout': 10, 'plain': False, 'nobanner': False}>"
p952
asbasbasbag68
(g84
g70
NtRp953
(dp954
g73
(dp955
sg82
g858
sg75
(lp956
g68
(g89
g70
NtRp957
(dp958
g73
(dp959
g93
g94
ssg82
g953
sg75
(lp960
S'db_sessions'
p961
asbag68
(g89
g70
NtRp962
(dp963
g73
(dp964
g100
g101
ssg82
g953
sg75
(lp965
S':'
asbag68
(g89
g70
NtRp966
(dp967
g73
(dp968
sg82
g953
sg75
(lp969
g68
(g69
g70
NtRp970
(dp971
g73
(dp972
g81
I4
ssg82
g966
sg75
(lp973
S'set([])'
p974
asbasbasbag68
(g84
g70
NtRp975
(dp976
g73
(dp977
sg82
g858
sg75
(lp978
g68
(g89
g70
NtRp979
(dp980
g73
(dp981
g93
g94
ssg82
g975
sg75
(lp982
S'debugging'
p983
asbag68
(g89
g70
NtRp984
(dp985
g73
(dp986
g100
g101
ssg82
g975
sg75
(lp987
S':'
asbag68
(g89
g70
NtRp988
(dp989
g73
(dp990
sg82
g975
sg75
(lp991
g68
(g69
g70
NtRp992
(dp993
g73
(dp994
g81
I4
ssg82
g988
sg75
(lp995
g111
asbasbasbag68
(g84
g70
NtRp996
(dp997
g73
(dp998
sg82
g858
sg75
(lp999
g68
(g89
g70
NtRp1000
(dp1001
g73
(dp1002
g93
g94
ssg82
g996
sg75
(lp1003
S'gluon_parent'
p1004
asbag68
(g89
g70
NtRp1005
(dp1006
g73
(dp1007
g100
g101
ssg82
g996
sg75
(lp1008
S':'
asbag68
(g89
g70
NtRp1009
(dp1010
g73
(dp1011
sg82
g996
sg75
(lp1012
g68
(g69
g70
NtRp1013
(dp1014
g73
(dp1015
g81
I4
ssg82
g1009
sg75
(lp1016
S'C:\\Python27\\web2py'
p1017
asbasbasbag68
(g84
g70
NtRp1018
(dp1019
g73
(dp1020
sg82
g858
sg75
(lp1021
g68
(g89
g70
NtRp1022
(dp1023
g73
(dp1024
g93
g94
ssg82
g1018
sg75
(lp1025
S'http_accept'
p1026
asbag68
(g89
g70
NtRp1027
(dp1028
g73
(dp1029
g100
g101
ssg82
g1018
sg75
(lp1030
S':'
asbag68
(g89
g70
NtRp1031
(dp1032
g73
(dp1033
sg82
g1018
sg75
(lp1034
g68
(g69
g70
NtRp1035
(dp1036
g73
(dp1037
g81
I4
ssg82
g1031
sg75
(lp1038
S'text/html,application/xhtml+xml,application/xml;q=0.9,*/*;q=0.8'
p1039
asbasbasbag68
(g84
g70
NtRp1040
(dp1041
g73
(dp1042
sg82
g858
sg75
(lp1043
g68
(g89
g70
NtRp1044
(dp1045
g73
(dp1046
g93
g94
ssg82
g1040
sg75
(lp1047
S'http_accept_encoding'
p1048
asbag68
(g89
g70
NtRp1049
(dp1050
g73
(dp1051
g100
g101
ssg82
g1040
sg75
(lp1052
S':'
asbag68
(g89
g70
NtRp1053
(dp1054
g73
(dp1055
sg82
g1040
sg75
(lp1056
g68
(g69
g70
NtRp1057
(dp1058
g73
(dp1059
g81
I4
ssg82
g1053
sg75
(lp1060
S'gzip, deflate'
p1061
asbasbasbag68
(g84
g70
NtRp1062
(dp1063
g73
(dp1064
sg82
g858
sg75
(lp1065
g68
(g89
g70
NtRp1066
(dp1067
g73
(dp1068
g93
g94
ssg82
g1062
sg75
(lp1069
S'http_accept_language'
p1070
asbag68
(g89
g70
NtRp1071
(dp1072
g73
(dp1073
g100
g101
ssg82
g1062
sg75
(lp1074
S':'
asbag68
(g89
g70
NtRp1075
(dp1076
g73
(dp1077
sg82
g1062
sg75
(lp1078
g68
(g69
g70
NtRp1079
(dp1080
g73
(dp1081
g81
I4
ssg82
g1075
sg75
(lp1082
S'zh-cn,zh;q=0.8,en-us;q=0.5,en;q=0.3'
p1083
asbasbasbag68
(g84
g70
NtRp1084
(dp1085
g73
(dp1086
sg82
g858
sg75
(lp1087
g68
(g89
g70
NtRp1088
(dp1089
g73
(dp1090
g93
g94
ssg82
g1084
sg75
(lp1091
S'http_cache_control'
p1092
asbag68
(g89
g70
NtRp1093
(dp1094
g73
(dp1095
g100
g101
ssg82
g1084
sg75
(lp1096
S':'
asbag68
(g89
g70
NtRp1097
(dp1098
g73
(dp1099
sg82
g1084
sg75
(lp1100
g68
(g69
g70
NtRp1101
(dp1102
g73
(dp1103
g81
I4
ssg82
g1097
sg75
(lp1104
S'max-age=0'
p1105
asbasbasbag68
(g84
g70
NtRp1106
(dp1107
g73
(dp1108
sg82
g858
sg75
(lp1109
g68
(g89
g70
NtRp1110
(dp1111
g73
(dp1112
g93
g94
ssg82
g1106
sg75
(lp1113
S'http_connection'
p1114
asbag68
(g89
g70
NtRp1115
(dp1116
g73
(dp1117
g100
g101
ssg82
g1106
sg75
(lp1118
S':'
asbag68
(g89
g70
NtRp1119
(dp1120
g73
(dp1121
sg82
g1106
sg75
(lp1122
g68
(g69
g70
NtRp1123
(dp1124
g73
(dp1125
g81
I4
ssg82
g1119
sg75
(lp1126
S'keep-alive'
p1127
asbasbasbag68
(g84
g70
NtRp1128
(dp1129
g73
(dp1130
sg82
g858
sg75
(lp1131
g68
(g89
g70
NtRp1132
(dp1133
g73
(dp1134
g93
g94
ssg82
g1128
sg75
(lp1135
S'http_cookie'
p1136
asbag68
(g89
g70
NtRp1137
(dp1138
g73
(dp1139
g100
g101
ssg82
g1128
sg75
(lp1140
S':'
asbag68
(g89
g70
NtRp1141
(dp1142
g73
(dp1143
sg82
g1128
sg75
(lp1144
g68
(g69
g70
NtRp1145
(dp1146
g73
(dp1147
g81
I4
ssg82
g1141
sg75
(lp1148
S'session_id_welcome=127.0.0.1-9063a53c-65d7-44ea-bfb7-52c745d08152; session_id_admin=127.0.0.1-040c41f2-b876-42e9-978e-9a080de27126; session_id_hw4=127.0.0.1-47db4407-5ca2-4b4f-b702-e73004465f15'
p1149
asbasbasbag68
(g84
g70
NtRp1150
(dp1151
g73
(dp1152
sg82
g858
sg75
(lp1153
g68
(g89
g70
NtRp1154
(dp1155
g73
(dp1156
g93
g94
ssg82
g1150
sg75
(lp1157
S'http_dnt'
p1158
asbag68
(g89
g70
NtRp1159
(dp1160
g73
(dp1161
g100
g101
ssg82
g1150
sg75
(lp1162
S':'
asbag68
(g89
g70
NtRp1163
(dp1164
g73
(dp1165
sg82
g1150
sg75
(lp1166
g68
(g69
g70
NtRp1167
(dp1168
g73
(dp1169
g81
I4
ssg82
g1163
sg75
(lp1170
S'1'
asbasbasbag68
(g84
g70
NtRp1171
(dp1172
g73
(dp1173
sg82
g858
sg75
(lp1174
g68
(g89
g70
NtRp1175
(dp1176
g73
(dp1177
g93
g94
ssg82
g1171
sg75
(lp1178
S'http_host'
p1179
asbag68
(g89
g70
NtRp1180
(dp1181
g73
(dp1182
g100
g101
ssg82
g1171
sg75
(lp1183
S':'
asbag68
(g89
g70
NtRp1184
(dp1185
g73
(dp1186
sg82
g1171
sg75
(lp1187
g68
(g69
g70
NtRp1188
(dp1189
g73
(dp1190
g81
I4
ssg82
g1184
sg75
(lp1191
S'127.0.0.1:8000'
p1192
asbasbasbag68
(g84
g70
NtRp1193
(dp1194
g73
(dp1195
sg82
g858
sg75
(lp1196
g68
(g89
g70
NtRp1197
(dp1198
g73
(dp1199
g93
g94
ssg82
g1193
sg75
(lp1200
S'http_user_agent'
p1201
asbag68
(g89
g70
NtRp1202
(dp1203
g73
(dp1204
g100
g101
ssg82
g1193
sg75
(lp1205
S':'
asbag68
(g89
g70
NtRp1206
(dp1207
g73
(dp1208
sg82
g1193
sg75
(lp1209
g68
(g69
g70
NtRp1210
(dp1211
g73
(dp1212
g81
I4
ssg82
g1206
sg75
(lp1213
S'Mozilla/5.0 (Windows NT 5.1; rv:23.0) Gecko/20100101 Firefox/23.0'
p1214
asbasbasbag68
(g84
g70
NtRp1215
(dp1216
g73
(dp1217
sg82
g858
sg75
(lp1218
g68
(g89
g70
NtRp1219
(dp1220
g73
(dp1221
g93
g94
ssg82
g1215
sg75
(lp1222
S'is_jython'
p1223
asbag68
(g89
g70
NtRp1224
(dp1225
g73
(dp1226
g100
g101
ssg82
g1215
sg75
(lp1227
S':'
asbag68
(g89
g70
NtRp1228
(dp1229
g73
(dp1230
sg82
g1215
sg75
(lp1231
g68
(g69
g70
NtRp1232
(dp1233
g73
(dp1234
g81
I4
ssg82
g1228
sg75
(lp1235
g111
asbasbasbag68
(g84
g70
NtRp1236
(dp1237
g73
(dp1238
sg82
g858
sg75
(lp1239
g68
(g89
g70
NtRp1240
(dp1241
g73
(dp1242
g93
g94
ssg82
g1236
sg75
(lp1243
S'is_pypy'
p1244
asbag68
(g89
g70
NtRp1245
(dp1246
g73
(dp1247
g100
g101
ssg82
g1236
sg75
(lp1248
S':'
asbag68
(g89
g70
NtRp1249
(dp1250
g73
(dp1251
sg82
g1236
sg75
(lp1252
g68
(g69
g70
NtRp1253
(dp1254
g73
(dp1255
g81
I4
ssg82
g1249
sg75
(lp1256
g111
asbasbasbag68
(g84
g70
NtRp1257
(dp1258
g73
(dp1259
sg82
g858
sg75
(lp1260
g68
(g89
g70
NtRp1261
(dp1262
g73
(dp1263
g93
g94
ssg82
g1257
sg75
(lp1264
S'local_hosts'
p1265
asbag68
(g89
g70
NtRp1266
(dp1267
g73
(dp1268
g100
g101
ssg82
g1257
sg75
(lp1269
S':'
asbag68
(g89
g70
NtRp1270
(dp1271
g73
(dp1272
sg82
g1257
sg75
(lp1273
g68
(g69
g70
NtRp1274
(dp1275
g73
(dp1276
g81
I4
ssg82
g1270
sg75
(lp1277
g68
(g77
g70
NtRp1278
(dp1279
g73
(dp1280
g81
I3
ssg82
Nsg75
(lp1281
g68
(g84
g70
NtRp1282
(dp1283
g73
(dp1284
sg82
g1278
sg75
(lp1285
g68
(g89
g70
NtRp1286
(dp1287
g73
(dp1288
sg82
g1282
sg75
(lp1289
g68
(g69
g70
NtRp1290
(dp1291
g73
(dp1292
g81
I3
ssg82
g1286
sg75
(lp1293
S'192.168.1.101'
p1294
asbasbasbag68
(g84
g70
NtRp1295
(dp1296
g73
(dp1297
sg82
g1278
sg75
(lp1298
g68
(g89
g70
NtRp1299
(dp1300
g73
(dp1301
sg82
g1295
sg75
(lp1302
g68
(g69
g70
NtRp1303
(dp1304
g73
(dp1305
g81
I3
ssg82
g1299
sg75
(lp1306
S'::1'
p1307
asbasbasbag68
(g84
g70
NtRp1308
(dp1309
g73
(dp1310
sg82
g1278
sg75
(lp1311
g68
(g89
g70
NtRp1312
(dp1313
g73
(dp1314
sg82
g1308
sg75
(lp1315
g68
(g69
g70
NtRp1316
(dp1317
g73
(dp1318
g81
I3
ssg82
g1312
sg75
(lp1319
S'FREESKYC-5359CC'
p1320
asbasbasbag68
(g84
g70
NtRp1321
(dp1322
g73
(dp1323
sg82
g1278
sg75
(lp1324
g68
(g89
g70
NtRp1325
(dp1326
g73
(dp1327
sg82
g1321
sg75
(lp1328
g68
(g69
g70
NtRp1329
(dp1330
g73
(dp1331
g81
I3
ssg82
g1325
sg75
(lp1332
S'::ffff:127.0.0.1'
p1333
asbasbasbag68
(g84
g70
NtRp1334
(dp1335
g73
(dp1336
sg82
g1278
sg75
(lp1337
g68
(g89
g70
NtRp1338
(dp1339
g73
(dp1340
sg82
g1334
sg75
(lp1341
g68
(g69
g70
NtRp1342
(dp1343
g73
(dp1344
g81
I3
ssg82
g1338
sg75
(lp1345
S'127.0.0.1'
p1346
asbasbasbasbasbasbasbag68
(g84
g70
NtRp1347
(dp1348
g73
(dp1349
sg82
g858
sg75
(lp1350
g68
(g89
g70
NtRp1351
(dp1352
g73
(dp1353
g93
g94
ssg82
g1347
sg75
(lp1354
S'path_info'
p1355
asbag68
(g89
g70
NtRp1356
(dp1357
g73
(dp1358
g100
g101
ssg82
g1347
sg75
(lp1359
S':'
asbag68
(g89
g70
NtRp1360
(dp1361
g73
(dp1362
sg82
g1347
sg75
(lp1363
g68
(g69
g70
NtRp1364
(dp1365
g73
(dp1366
g81
I4
ssg82
g1360
sg75
(lp1367
S'/hw4/teacher/index'
p1368
asbasbasbag68
(g84
g70
NtRp1369
(dp1370
g73
(dp1371
sg82
g858
sg75
(lp1372
g68
(g89
g70
NtRp1373
(dp1374
g73
(dp1375
g93
g94
ssg82
g1369
sg75
(lp1376
S'query_string'
p1377
asbag68
(g89
g70
NtRp1378
(dp1379
g73
(dp1380
g100
g101
ssg82
g1369
sg75
(lp1381
S':'
asbag68
(g89
g70
NtRp1382
(dp1383
g73
(dp1384
sg82
g1369
sg75
(lp1385
g68
(g69
g70
NtRp1386
(dp1387
g73
(dp1388
g81
I4
ssg82
g1382
sg75
(lp1389
S''
asbasbasbag68
(g84
g70
NtRp1390
(dp1391
g73
(dp1392
sg82
g858
sg75
(lp1393
g68
(g89
g70
NtRp1394
(dp1395
g73
(dp1396
g93
g94
ssg82
g1390
sg75
(lp1397
S'remote_addr'
p1398
asbag68
(g89
g70
NtRp1399
(dp1400
g73
(dp1401
g100
g101
ssg82
g1390
sg75
(lp1402
S':'
asbag68
(g89
g70
NtRp1403
(dp1404
g73
(dp1405
sg82
g1390
sg75
(lp1406
g68
(g69
g70
NtRp1407
(dp1408
g73
(dp1409
g81
I4
ssg82
g1403
sg75
(lp1410
g223
asbasbasbag68
(g84
g70
NtRp1411
(dp1412
g73
(dp1413
sg82
g858
sg75
(lp1414
g68
(g89
g70
NtRp1415
(dp1416
g73
(dp1417
g93
g94
ssg82
g1411
sg75
(lp1418
S'remote_port'
p1419
asbag68
(g89
g70
NtRp1420
(dp1421
g73
(dp1422
g100
g101
ssg82
g1411
sg75
(lp1423
S':'
asbag68
(g89
g70
NtRp1424
(dp1425
g73
(dp1426
sg82
g1411
sg75
(lp1427
g68
(g69
g70
NtRp1428
(dp1429
g73
(dp1430
g81
I4
ssg82
g1424
sg75
(lp1431
S'1965'
p1432
asbasbasbag68
(g84
g70
NtRp1433
(dp1434
g73
(dp1435
sg82
g858
sg75
(lp1436
g68
(g89
g70
NtRp1437
(dp1438
g73
(dp1439
g93
g94
ssg82
g1433
sg75
(lp1440
S'request_method'
p1441
asbag68
(g89
g70
NtRp1442
(dp1443
g73
(dp1444
g100
g101
ssg82
g1433
sg75
(lp1445
S':'
asbag68
(g89
g70
NtRp1446
(dp1447
g73
(dp1448
sg82
g1433
sg75
(lp1449
g68
(g69
g70
NtRp1450
(dp1451
g73
(dp1452
g81
I4
ssg82
g1446
sg75
(lp1453
S'GET'
p1454
asbasbasbag68
(g84
g70
NtRp1455
(dp1456
g73
(dp1457
sg82
g858
sg75
(lp1458
g68
(g89
g70
NtRp1459
(dp1460
g73
(dp1461
g93
g94
ssg82
g1455
sg75
(lp1462
S'request_uri'
p1463
asbag68
(g89
g70
NtRp1464
(dp1465
g73
(dp1466
g100
g101
ssg82
g1455
sg75
(lp1467
S':'
asbag68
(g89
g70
NtRp1468
(dp1469
g73
(dp1470
sg82
g1455
sg75
(lp1471
g68
(g69
g70
NtRp1472
(dp1473
g73
(dp1474
g81
I4
ssg82
g1468
sg75
(lp1475
g1368
asbasbasbag68
(g84
g70
NtRp1476
(dp1477
g73
(dp1478
sg82
g858
sg75
(lp1479
g68
(g89
g70
NtRp1480
(dp1481
g73
(dp1482
g93
g94
ssg82
g1476
sg75
(lp1483
S'script_name'
p1484
asbag68
(g89
g70
NtRp1485
(dp1486
g73
(dp1487
g100
g101
ssg82
g1476
sg75
(lp1488
S':'
asbag68
(g89
g70
NtRp1489
(dp1490
g73
(dp1491
sg82
g1476
sg75
(lp1492
g68
(g69
g70
NtRp1493
(dp1494
g73
(dp1495
g81
I4
ssg82
g1489
sg75
(lp1496
S''
asbasbasbag68
(g84
g70
NtRp1497
(dp1498
g73
(dp1499
sg82
g858
sg75
(lp1500
g68
(g89
g70
NtRp1501
(dp1502
g73
(dp1503
g93
g94
ssg82
g1497
sg75
(lp1504
S'server_name'
p1505
asbag68
(g89
g70
NtRp1506
(dp1507
g73
(dp1508
g100
g101
ssg82
g1497
sg75
(lp1509
S':'
asbag68
(g89
g70
NtRp1510
(dp1511
g73
(dp1512
sg82
g1497
sg75
(lp1513
g68
(g69
g70
NtRp1514
(dp1515
g73
(dp1516
g81
I4
ssg82
g1510
sg75
(lp1517
S'FREESKYC-5359CC'
p1518
asbasbasbag68
(g84
g70
NtRp1519
(dp1520
g73
(dp1521
sg82
g858
sg75
(lp1522
g68
(g89
g70
NtRp1523
(dp1524
g73
(dp1525
g93
g94
ssg82
g1519
sg75
(lp1526
S'server_port'
p1527
asbag68
(g89
g70
NtRp1528
(dp1529
g73
(dp1530
g100
g101
ssg82
g1519
sg75
(lp1531
S':'
asbag68
(g89
g70
NtRp1532
(dp1533
g73
(dp1534
sg82
g1519
sg75
(lp1535
g68
(g69
g70
NtRp1536
(dp1537
g73
(dp1538
g81
I4
ssg82
g1532
sg75
(lp1539
S'8000'
p1540
asbasbasbag68
(g84
g70
NtRp1541
(dp1542
g73
(dp1543
sg82
g858
sg75
(lp1544
g68
(g89
g70
NtRp1545
(dp1546
g73
(dp1547
g93
g94
ssg82
g1541
sg75
(lp1548
S'server_protocol'
p1549
asbag68
(g89
g70
NtRp1550
(dp1551
g73
(dp1552
g100
g101
ssg82
g1541
sg75
(lp1553
S':'
asbag68
(g89
g70
NtRp1554
(dp1555
g73
(dp1556
sg82
g1541
sg75
(lp1557
g68
(g69
g70
NtRp1558
(dp1559
g73
(dp1560
g81
I4
ssg82
g1554
sg75
(lp1561
S'HTTP/1.1'
p1562
asbasbasbag68
(g84
g70
NtRp1563
(dp1564
g73
(dp1565
sg82
g858
sg75
(lp1566
g68
(g89
g70
NtRp1567
(dp1568
g73
(dp1569
g93
g94
ssg82
g1563
sg75
(lp1570
S'server_software'
p1571
asbag68
(g89
g70
NtRp1572
(dp1573
g73
(dp1574
g100
g101
ssg82
g1563
sg75
(lp1575
S':'
asbag68
(g89
g70
NtRp1576
(dp1577
g73
(dp1578
sg82
g1563
sg75
(lp1579
g68
(g69
g70
NtRp1580
(dp1581
g73
(dp1582
g81
I4
ssg82
g1576
sg75
(lp1583
S'Rocket 1.2.6'
p1584
asbasbasbag68
(g84
g70
NtRp1585
(dp1586
g73
(dp1587
sg82
g858
sg75
(lp1588
g68
(g89
g70
NtRp1589
(dp1590
g73
(dp1591
g93
g94
ssg82
g1585
sg75
(lp1592
S'web2py_path'
p1593
asbag68
(g89
g70
NtRp1594
(dp1595
g73
(dp1596
g100
g101
ssg82
g1585
sg75
(lp1597
S':'
asbag68
(g89
g70
NtRp1598
(dp1599
g73
(dp1600
sg82
g1585
sg75
(lp1601
g68
(g69
g70
NtRp1602
(dp1603
g73
(dp1604
g81
I4
ssg82
g1598
sg75
(lp1605
g905
asbasbasbag68
(g84
g70
NtRp1606
(dp1607
g73
(dp1608
sg82
g858
sg75
(lp1609
g68
(g89
g70
NtRp1610
(dp1611
g73
(dp1612
g93
g94
ssg82
g1606
sg75
(lp1613
S'web2py_version'
p1614
asbag68
(g89
g70
NtRp1615
(dp1616
g73
(dp1617
g100
g101
ssg82
g1606
sg75
(lp1618
S':'
asbag68
(g89
g70
NtRp1619
(dp1620
g73
(dp1621
sg82
g1606
sg75
(lp1622
g68
(g69
g70
NtRp1623
(dp1624
g73
(dp1625
g81
I4
ssg82
g1619
sg75
(lp1626
g68
(g77
g70
NtRp1627
(dp1628
g73
(dp1629
g81
I3
ssg82
Nsg75
(lp1630
g68
(g84
g70
NtRp1631
(dp1632
g73
(dp1633
sg82
g1627
sg75
(lp1634
g68
(g89
g70
NtRp1635
(dp1636
g73
(dp1637
sg82
g1631
sg75
(lp1638
g68
(g69
g70
NtRp1639
(dp1640
g73
(dp1641
g81
I3
ssg82
g1635
sg75
(lp1642
S'2'
asbasbasbag68
(g84
g70
NtRp1643
(dp1644
g73
(dp1645
sg82
g1627
sg75
(lp1646
g68
(g89
g70
NtRp1647
(dp1648
g73
(dp1649
sg82
g1643
sg75
(lp1650
g68
(g69
g70
NtRp1651
(dp1652
g73
(dp1653
g81
I3
ssg82
g1647
sg75
(lp1654
S'3'
asbasbasbag68
(g84
g70
NtRp1655
(dp1656
g73
(dp1657
sg82
g1627
sg75
(lp1658
g68
(g89
g70
NtRp1659
(dp1660
g73
(dp1661
sg82
g1655
sg75
(lp1662
g68
(g69
g70
NtRp1663
(dp1664
g73
(dp1665
g81
I3
ssg82
g1659
sg75
(lp1666
S'2'
asbasbasbag68
(g84
g70
NtRp1667
(dp1668
g73
(dp1669
sg82
g1627
sg75
(lp1670
g68
(g89
g70
NtRp1671
(dp1672
g73
(dp1673
sg82
g1667
sg75
(lp1674
g68
(g69
g70
NtRp1675
(dp1676
g73
(dp1677
g81
I3
ssg82
g1671
sg75
(lp1678
S'datetime.datetime(2012, 12, 17, 15, 3, 30)'
p1679
asbasbasbag68
(g84
g70
NtRp1680
(dp1681
g73
(dp1682
sg82
g1627
sg75
(lp1683
g68
(g89
g70
NtRp1684
(dp1685
g73
(dp1686
sg82
g1680
sg75
(lp1687
g68
(g69
g70
NtRp1688
(dp1689
g73
(dp1690
g81
I3
ssg82
g1684
sg75
(lp1691
S'stable'
p1692
asbasbasbasbasbasbasbag68
(g84
g70
NtRp1693
(dp1694
g73
(dp1695
sg82
g858
sg75
(lp1696
g68
(g89
g70
NtRp1697
(dp1698
g73
(dp1699
g93
g94
ssg82
g1693
sg75
(lp1700
S'wsgi_errors'
p1701
asbag68
(g89
g70
NtRp1702
(dp1703
g73
(dp1704
g100
g101
ssg82
g1693
sg75
(lp1705
S':'
asbag68
(g89
g70
NtRp1706
(dp1707
g73
(dp1708
sg82
g1693
sg75
(lp1709
g68
(g69
g70
NtRp1710
(dp1711
g73
(dp1712
g81
I4
ssg82
g1706
sg75
(lp1713
S"<open file '<stderr>', mode 'w' at 0x00AD50D0>"
p1714
asbasbasbag68
(g84
g70
NtRp1715
(dp1716
g73
(dp1717
sg82
g858
sg75
(lp1718
g68
(g89
g70
NtRp1719
(dp1720
g73
(dp1721
g93
g94
ssg82
g1715
sg75
(lp1722
S'wsgi_file_wrapper'
p1723
asbag68
(g89
g70
NtRp1724
(dp1725
g73
(dp1726
g100
g101
ssg82
g1715
sg75
(lp1727
S':'
asbag68
(g89
g70
NtRp1728
(dp1729
g73
(dp1730
sg82
g1715
sg75
(lp1731
g68
(g69
g70
NtRp1732
(dp1733
g73
(dp1734
g81
I4
ssg82
g1728
sg75
(lp1735
S'<class wsgiref.util.FileWrapper at 0x01736C38>'
p1736
asbasbasbag68
(g84
g70
NtRp1737
(dp1738
g73
(dp1739
sg82
g858
sg75
(lp1740
g68
(g89
g70
NtRp1741
(dp1742
g73
(dp1743
g93
g94
ssg82
g1737
sg75
(lp1744
S'wsgi_input'
p1745
asbag68
(g89
g70
NtRp1746
(dp1747
g73
(dp1748
g100
g101
ssg82
g1737
sg75
(lp1749
S':'
asbag68
(g89
g70
NtRp1750
(dp1751
g73
(dp1752
sg82
g1737
sg75
(lp1753
g68
(g69
g70
NtRp1754
(dp1755
g73
(dp1756
g81
I4
ssg82
g1750
sg75
(lp1757
S'<socket._fileobject object at 0x05501A30>'
p1758
asbasbasbag68
(g84
g70
NtRp1759
(dp1760
g73
(dp1761
sg82
g858
sg75
(lp1762
g68
(g89
g70
NtRp1763
(dp1764
g73
(dp1765
g93
g94
ssg82
g1759
sg75
(lp1766
S'wsgi_multiprocess'
p1767
asbag68
(g89
g70
NtRp1768
(dp1769
g73
(dp1770
g100
g101
ssg82
g1759
sg75
(lp1771
S':'
asbag68
(g89
g70
NtRp1772
(dp1773
g73
(dp1774
sg82
g1759
sg75
(lp1775
g68
(g69
g70
NtRp1776
(dp1777
g73
(dp1778
g81
I4
ssg82
g1772
sg75
(lp1779
g111
asbasbasbag68
(g84
g70
NtRp1780
(dp1781
g73
(dp1782
sg82
g858
sg75
(lp1783
g68
(g89
g70
NtRp1784
(dp1785
g73
(dp1786
g93
g94
ssg82
g1780
sg75
(lp1787
S'wsgi_multithread'
p1788
asbag68
(g89
g70
NtRp1789
(dp1790
g73
(dp1791
g100
g101
ssg82
g1780
sg75
(lp1792
S':'
asbag68
(g89
g70
NtRp1793
(dp1794
g73
(dp1795
sg82
g1780
sg75
(lp1796
g68
(g69
g70
NtRp1797
(dp1798
g73
(dp1799
g81
I4
ssg82
g1793
sg75
(lp1800
S'True'
p1801
asbasbasbag68
(g84
g70
NtRp1802
(dp1803
g73
(dp1804
sg82
g858
sg75
(lp1805
g68
(g89
g70
NtRp1806
(dp1807
g73
(dp1808
g93
g94
ssg82
g1802
sg75
(lp1809
S'wsgi_run_once'
p1810
asbag68
(g89
g70
NtRp1811
(dp1812
g73
(dp1813
g100
g101
ssg82
g1802
sg75
(lp1814
S':'
asbag68
(g89
g70
NtRp1815
(dp1816
g73
(dp1817
sg82
g1802
sg75
(lp1818
g68
(g69
g70
NtRp1819
(dp1820
g73
(dp1821
g81
I4
ssg82
g1815
sg75
(lp1822
g111
asbasbasbag68
(g84
g70
NtRp1823
(dp1824
g73
(dp1825
sg82
g858
sg75
(lp1826
g68
(g89
g70
NtRp1827
(dp1828
g73
(dp1829
g93
g94
ssg82
g1823
sg75
(lp1830
S'wsgi_url_scheme'
p1831
asbag68
(g89
g70
NtRp1832
(dp1833
g73
(dp1834
g100
g101
ssg82
g1823
sg75
(lp1835
S':'
asbag68
(g89
g70
NtRp1836
(dp1837
g73
(dp1838
sg82
g1823
sg75
(lp1839
g68
(g69
g70
NtRp1840
(dp1841
g73
(dp1842
g81
I4
ssg82
g1836
sg75
(lp1843
S'http'
p1844
asbasbasbag68
(g84
g70
NtRp1845
(dp1846
g73
(dp1847
sg82
g858
sg75
(lp1848
g68
(g89
g70
NtRp1849
(dp1850
g73
(dp1851
g93
g94
ssg82
g1845
sg75
(lp1852
S'wsgi_version'
p1853
asbag68
(g89
g70
NtRp1854
(dp1855
g73
(dp1856
g100
g101
ssg82
g1845
sg75
(lp1857
S':'
asbag68
(g89
g70
NtRp1858
(dp1859
g73
(dp1860
sg82
g1845
sg75
(lp1861
g68
(g69
g70
NtRp1862
(dp1863
g73
(dp1864
g81
I4
ssg82
g1858
sg75
(lp1865
g68
(g77
g70
NtRp1866
(dp1867
g73
(dp1868
g81
I3
ssg82
Nsg75
(lp1869
g68
(g84
g70
NtRp1870
(dp1871
g73
(dp1872
sg82
g1866
sg75
(lp1873
g68
(g89
g70
NtRp1874
(dp1875
g73
(dp1876
sg82
g1870
sg75
(lp1877
g68
(g69
g70
NtRp1878
(dp1879
g73
(dp1880
g81
I3
ssg82
g1874
sg75
(lp1881
S'1'
asbasbasbag68
(g84
g70
NtRp1882
(dp1883
g73
(dp1884
sg82
g1866
sg75
(lp1885
g68
(g89
g70
NtRp1886
(dp1887
g73
(dp1888
sg82
g1882
sg75
(lp1889
g68
(g69
g70
NtRp1890
(dp1891
g73
(dp1892
g81
I3
ssg82
g1886
sg75
(lp1893
S'0'
asbasbasbasbasbasbasbasbasbasbasbag68
(g84
g70
NtRp1894
(dp1895
g73
(dp1896
sg82
g78
sg75
(lp1897
g68
(g89
g70
NtRp1898
(dp1899
g73
(dp1900
g93
g94
ssg82
g1894
sg75
(lp1901
S'extension'
p1902
asbag68
(g89
g70
NtRp1903
(dp1904
g73
(dp1905
g100
g101
ssg82
g1894
sg75
(lp1906
S':'
asbag68
(g89
g70
NtRp1907
(dp1908
g73
(dp1909
sg82
g1894
sg75
(lp1910
g68
(g69
g70
NtRp1911
(dp1912
g73
(dp1913
g81
I5
ssg82
g1907
sg75
(lp1914
S'html'
p1915
asbasbasbag68
(g84
g70
NtRp1916
(dp1917
g73
(dp1918
sg82
g78
sg75
(lp1919
g68
(g89
g70
NtRp1920
(dp1921
g73
(dp1922
g93
g94
ssg82
g1916
sg75
(lp1923
S'folder'
p1924
asbag68
(g89
g70
NtRp1925
(dp1926
g73
(dp1927
g100
g101
ssg82
g1916
sg75
(lp1928
S':'
asbag68
(g89
g70
NtRp1929
(dp1930
g73
(dp1931
sg82
g1916
sg75
(lp1932
g68
(g69
g70
NtRp1933
(dp1934
g73
(dp1935
g81
I5
ssg82
g1929
sg75
(lp1936
S'C:\\Python27\\web2py\\applications\\hw4\\'
p1937
asbasbasbag68
(g84
g70
NtRp1938
(dp1939
g73
(dp1940
sg82
g78
sg75
(lp1941
g68
(g89
g70
NtRp1942
(dp1943
g73
(dp1944
g93
g94
ssg82
g1938
sg75
(lp1945
S'function'
p1946
asbag68
(g89
g70
NtRp1947
(dp1948
g73
(dp1949
g100
g101
ssg82
g1938
sg75
(lp1950
S':'
asbag68
(g89
g70
NtRp1951
(dp1952
g73
(dp1953
sg82
g1938
sg75
(lp1954
g68
(g69
g70
NtRp1955
(dp1956
g73
(dp1957
g81
I5
ssg82
g1951
sg75
(lp1958
S'index'
p1959
asbasbasbag68
(g84
g70
NtRp1960
(dp1961
g73
(dp1962
sg82
g78
sg75
(lp1963
g68
(g89
g70
NtRp1964
(dp1965
g73
(dp1966
g93
g94
ssg82
g1960
sg75
(lp1967
S'get_vars'
p1968
asbag68
(g89
g70
NtRp1969
(dp1970
g73
(dp1971
g100
g101
ssg82
g1960
sg75
(lp1972
S':'
asbag68
(g89
g70
NtRp1973
(dp1974
g73
(dp1975
sg82
g1960
sg75
(lp1976
g68
(g69
g70
NtRp1977
(dp1978
g73
(dp1979
g81
I5
ssg82
g1973
sg75
(lp1980
g68
(g77
g70
NtRp1981
(dp1982
g73
(dp1983
g81
I4
ssg82
Nsg75
(lp1984
sbasbasbasbag68
(g84
g70
NtRp1985
(dp1986
g73
(dp1987
sg82
g78
sg75
(lp1988
g68
(g89
g70
NtRp1989
(dp1990
g73
(dp1991
g93
g94
ssg82
g1985
sg75
(lp1992
S'global_settings'
p1993
asbag68
(g89
g70
NtRp1994
(dp1995
g73
(dp1996
g100
g101
ssg82
g1985
sg75
(lp1997
S':'
asbag68
(g89
g70
NtRp1998
(dp1999
g73
(dp2000
sg82
g1985
sg75
(lp2001
g68
(g69
g70
NtRp2002
(dp2003
g73
(dp2004
g81
I5
ssg82
g1998
sg75
(lp2005
g68
(g77
g70
NtRp2006
(dp2007
g73
(dp2008
g81
I4
ssg82
Nsg75
(lp2009
g68
(g84
g70
NtRp2010
(dp2011
g73
(dp2012
sg82
g2006
sg75
(lp2013
g68
(g89
g70
NtRp2014
(dp2015
g73
(dp2016
g93
g94
ssg82
g2010
sg75
(lp2017
g870
asbag68
(g89
g70
NtRp2018
(dp2019
g73
(dp2020
g100
g101
ssg82
g2010
sg75
(lp2021
S':'
asbag68
(g89
g70
NtRp2022
(dp2023
g73
(dp2024
sg82
g2010
sg75
(lp2025
g68
(g69
g70
NtRp2026
(dp2027
g73
(dp2028
g81
I4
ssg82
g2022
sg75
(lp2029
S"set(['C:\\\\Python27\\\\web2py\\\\applications\\\\admin\\\\', 'C:\\\\Python27\\\\web2py\\\\applications\\\\welcome\\\\', 'C:\\\\Python27\\\\web2py\\\\applications\\\\hw4\\\\'])"
p2030
asbasbasbag68
(g84
g70
NtRp2031
(dp2032
g73
(dp2033
sg82
g2006
sg75
(lp2034
g68
(g89
g70
NtRp2035
(dp2036
g73
(dp2037
g93
g94
ssg82
g2031
sg75
(lp2038
g892
asbag68
(g89
g70
NtRp2039
(dp2040
g73
(dp2041
g100
g101
ssg82
g2031
sg75
(lp2042
S':'
asbag68
(g89
g70
NtRp2043
(dp2044
g73
(dp2045
sg82
g2031
sg75
(lp2046
g68
(g69
g70
NtRp2047
(dp2048
g73
(dp2049
g81
I4
ssg82
g2043
sg75
(lp2050
g905
asbasbasbag68
(g84
g70
NtRp2051
(dp2052
g73
(dp2053
sg82
g2006
sg75
(lp2054
g68
(g89
g70
NtRp2055
(dp2056
g73
(dp2057
g93
g94
ssg82
g2051
sg75
(lp2058
g914
asbag68
(g89
g70
NtRp2059
(dp2060
g73
(dp2061
g100
g101
ssg82
g2051
sg75
(lp2062
S':'
asbag68
(g89
g70
NtRp2063
(dp2064
g73
(dp2065
sg82
g2051
sg75
(lp2066
g68
(g69
g70
NtRp2067
(dp2068
g73
(dp2069
g81
I4
ssg82
g2063
sg75
(lp2070
g68
(g77
g70
NtRp2071
(dp2072
g73
(dp2073
g81
I3
ssg82
Nsg75
(lp2074
sbasbasbasbag68
(g84
g70
NtRp2075
(dp2076
g73
(dp2077
sg82
g2006
sg75
(lp2078
g68
(g89
g70
NtRp2079
(dp2080
g73
(dp2081
g93
g94
ssg82
g2075
sg75
(lp2082
g939
asbag68
(g89
g70
NtRp2083
(dp2084
g73
(dp2085
g100
g101
ssg82
g2075
sg75
(lp2086
S':'
asbag68
(g89
g70
NtRp2087
(dp2088
g73
(dp2089
sg82
g2075
sg75
(lp2090
g68
(g69
g70
NtRp2091
(dp2092
g73
(dp2093
g81
I4
ssg82
g2087
sg75
(lp2094
S"<Values at 0x17c00f8: {'verbose': False, 'ip': '127.0.0.1', 'with_scheduler': False, 'ips': ['192.168.1.101'], 'shutdown_timeout': 5, 'taskbar': False, 'port': 8000, 'maxthreads': None, 'softcron': False, 'server_name': 'FREESKYC-5359CC', 'bpython': False, 'nogui': False, 'pid_filename': 'httpserver.pid', 'extcron': False, 'runcron': False, 'run_system_tests': False, 'test': None, 'folder': 'C:\\\\Python27\\\\web2py', 'config': '', 'import_models': False, 'winservice': '', 'shell': None, 'run': '', 'log_filename': 'httpserver.log', 'debuglevel': 30, 'args': [''], 'socket_timeout': 5, 'ssl_ca_certificate': None, 'scheduler': None, 'profiler_filename': None, 'ssl_private_key': '', 'scheduler_groups': None, 'password': '<ask>', 'request_queue_size': 5, 'ssl_certificate': '', 'cronjob': False, 'numthreads': None, 'quiet': False, 'interfaces': None, 'minthreads': None, 'timeout': 10, 'plain': False, 'nobanner': False}>"
p2095
asbasbasbag68
(g84
g70
NtRp2096
(dp2097
g73
(dp2098
sg82
g2006
sg75
(lp2099
g68
(g89
g70
NtRp2100
(dp2101
g73
(dp2102
g93
g94
ssg82
g2096
sg75
(lp2103
g961
asbag68
(g89
g70
NtRp2104
(dp2105
g73
(dp2106
g100
g101
ssg82
g2096
sg75
(lp2107
S':'
asbag68
(g89
g70
NtRp2108
(dp2109
g73
(dp2110
sg82
g2096
sg75
(lp2111
g68
(g69
g70
NtRp2112
(dp2113
g73
(dp2114
g81
I4
ssg82
g2108
sg75
(lp2115
S'set([])'
p2116
asbasbasbag68
(g84
g70
NtRp2117
(dp2118
g73
(dp2119
sg82
g2006
sg75
(lp2120
g68
(g89
g70
NtRp2121
(dp2122
g73
(dp2123
g93
g94
ssg82
g2117
sg75
(lp2124
g983
asbag68
(g89
g70
NtRp2125
(dp2126
g73
(dp2127
g100
g101
ssg82
g2117
sg75
(lp2128
S':'
asbag68
(g89
g70
NtRp2129
(dp2130
g73
(dp2131
sg82
g2117
sg75
(lp2132
g68
(g69
g70
NtRp2133
(dp2134
g73
(dp2135
g81
I4
ssg82
g2129
sg75
(lp2136
g111
asbasbasbag68
(g84
g70
NtRp2137
(dp2138
g73
(dp2139
sg82
g2006
sg75
(lp2140
g68
(g89
g70
NtRp2141
(dp2142
g73
(dp2143
g93
g94
ssg82
g2137
sg75
(lp2144
g1004
asbag68
(g89
g70
NtRp2145
(dp2146
g73
(dp2147
g100
g101
ssg82
g2137
sg75
(lp2148
S':'
asbag68
(g89
g70
NtRp2149
(dp2150
g73
(dp2151
sg82
g2137
sg75
(lp2152
g68
(g69
g70
NtRp2153
(dp2154
g73
(dp2155
g81
I4
ssg82
g2149
sg75
(lp2156
g1017
asbasbasbag68
(g84
g70
NtRp2157
(dp2158
g73
(dp2159
sg82
g2006
sg75
(lp2160
g68
(g89
g70
NtRp2161
(dp2162
g73
(dp2163
g93
g94
ssg82
g2157
sg75
(lp2164
g1223
asbag68
(g89
g70
NtRp2165
(dp2166
g73
(dp2167
g100
g101
ssg82
g2157
sg75
(lp2168
S':'
asbag68
(g89
g70
NtRp2169
(dp2170
g73
(dp2171
sg82
g2157
sg75
(lp2172
g68
(g69
g70
NtRp2173
(dp2174
g73
(dp2175
g81
I4
ssg82
g2169
sg75
(lp2176
g111
asbasbasbag68
(g84
g70
NtRp2177
(dp2178
g73
(dp2179
sg82
g2006
sg75
(lp2180
g68
(g89
g70
NtRp2181
(dp2182
g73
(dp2183
g93
g94
ssg82
g2177
sg75
(lp2184
g1244
asbag68
(g89
g70
NtRp2185
(dp2186
g73
(dp2187
g100
g101
ssg82
g2177
sg75
(lp2188
S':'
asbag68
(g89
g70
NtRp2189
(dp2190
g73
(dp2191
sg82
g2177
sg75
(lp2192
g68
(g69
g70
NtRp2193
(dp2194
g73
(dp2195
g81
I4
ssg82
g2189
sg75
(lp2196
g111
asbasbasbag68
(g84
g70
NtRp2197
(dp2198
g73
(dp2199
sg82
g2006
sg75
(lp2200
g68
(g89
g70
NtRp2201
(dp2202
g73
(dp2203
g93
g94
ssg82
g2197
sg75
(lp2204
g1265
asbag68
(g89
g70
NtRp2205
(dp2206
g73
(dp2207
g100
g101
ssg82
g2197
sg75
(lp2208
S':'
asbag68
(g89
g70
NtRp2209
(dp2210
g73
(dp2211
sg82
g2197
sg75
(lp2212
g68
(g69
g70
NtRp2213
(dp2214
g73
(dp2215
g81
I4
ssg82
g2209
sg75
(lp2216
g68
(g77
g70
NtRp2217
(dp2218
g73
(dp2219
g81
I3
ssg82
Nsg75
(lp2220
g68
(g84
g70
NtRp2221
(dp2222
g73
(dp2223
sg82
g2217
sg75
(lp2224
g68
(g89
g70
NtRp2225
(dp2226
g73
(dp2227
sg82
g2221
sg75
(lp2228
g68
(g69
g70
NtRp2229
(dp2230
g73
(dp2231
g81
I3
ssg82
g2225
sg75
(lp2232
g1294
asbasbasbag68
(g84
g70
NtRp2233
(dp2234
g73
(dp2235
sg82
g2217
sg75
(lp2236
g68
(g89
g70
NtRp2237
(dp2238
g73
(dp2239
sg82
g2233
sg75
(lp2240
g68
(g69
g70
NtRp2241
(dp2242
g73
(dp2243
g81
I3
ssg82
g2237
sg75
(lp2244
g1307
asbasbasbag68
(g84
g70
NtRp2245
(dp2246
g73
(dp2247
sg82
g2217
sg75
(lp2248
g68
(g89
g70
NtRp2249
(dp2250
g73
(dp2251
sg82
g2245
sg75
(lp2252
g68
(g69
g70
NtRp2253
(dp2254
g73
(dp2255
g81
I3
ssg82
g2249
sg75
(lp2256
g1320
asbasbasbag68
(g84
g70
NtRp2257
(dp2258
g73
(dp2259
sg82
g2217
sg75
(lp2260
g68
(g89
g70
NtRp2261
(dp2262
g73
(dp2263
sg82
g2257
sg75
(lp2264
g68
(g69
g70
NtRp2265
(dp2266
g73
(dp2267
g81
I3
ssg82
g2261
sg75
(lp2268
g1333
asbasbasbag68
(g84
g70
NtRp2269
(dp2270
g73
(dp2271
sg82
g2217
sg75
(lp2272
g68
(g89
g70
NtRp2273
(dp2274
g73
(dp2275
sg82
g2269
sg75
(lp2276
g68
(g69
g70
NtRp2277
(dp2278
g73
(dp2279
g81
I3
ssg82
g2273
sg75
(lp2280
g1346
asbasbasbasbasbasbasbag68
(g84
g70
NtRp2281
(dp2282
g73
(dp2283
sg82
g2006
sg75
(lp2284
g68
(g89
g70
NtRp2285
(dp2286
g73
(dp2287
g93
g94
ssg82
g2281
sg75
(lp2288
g1614
asbag68
(g89
g70
NtRp2289
(dp2290
g73
(dp2291
g100
g101
ssg82
g2281
sg75
(lp2292
S':'
asbag68
(g89
g70
NtRp2293
(dp2294
g73
(dp2295
sg82
g2281
sg75
(lp2296
g68
(g69
g70
NtRp2297
(dp2298
g73
(dp2299
g81
I4
ssg82
g2293
sg75
(lp2300
g68
(g77
g70
NtRp2301
(dp2302
g73
(dp2303
g81
I3
ssg82
Nsg75
(lp2304
g68
(g84
g70
NtRp2305
(dp2306
g73
(dp2307
sg82
g2301
sg75
(lp2308
g68
(g89
g70
NtRp2309
(dp2310
g73
(dp2311
sg82
g2305
sg75
(lp2312
g68
(g69
g70
NtRp2313
(dp2314
g73
(dp2315
g81
I3
ssg82
g2309
sg75
(lp2316
S'2'
asbasbasbag68
(g84
g70
NtRp2317
(dp2318
g73
(dp2319
sg82
g2301
sg75
(lp2320
g68
(g89
g70
NtRp2321
(dp2322
g73
(dp2323
sg82
g2317
sg75
(lp2324
g68
(g69
g70
NtRp2325
(dp2326
g73
(dp2327
g81
I3
ssg82
g2321
sg75
(lp2328
S'3'
asbasbasbag68
(g84
g70
NtRp2329
(dp2330
g73
(dp2331
sg82
g2301
sg75
(lp2332
g68
(g89
g70
NtRp2333
(dp2334
g73
(dp2335
sg82
g2329
sg75
(lp2336
g68
(g69
g70
NtRp2337
(dp2338
g73
(dp2339
g81
I3
ssg82
g2333
sg75
(lp2340
S'2'
asbasbasbag68
(g84
g70
NtRp2341
(dp2342
g73
(dp2343
sg82
g2301
sg75
(lp2344
g68
(g89
g70
NtRp2345
(dp2346
g73
(dp2347
sg82
g2341
sg75
(lp2348
g68
(g69
g70
NtRp2349
(dp2350
g73
(dp2351
g81
I3
ssg82
g2345
sg75
(lp2352
S'datetime.datetime(2012, 12, 17, 15, 3, 30)'
p2353
asbasbasbag68
(g84
g70
NtRp2354
(dp2355
g73
(dp2356
sg82
g2301
sg75
(lp2357
g68
(g89
g70
NtRp2358
(dp2359
g73
(dp2360
sg82
g2354
sg75
(lp2361
g68
(g69
g70
NtRp2362
(dp2363
g73
(dp2364
g81
I3
ssg82
g2358
sg75
(lp2365
g1692
asbasbasbasbasbasbasbasbasbasbasbag68
(g84
g70
NtRp2366
(dp2367
g73
(dp2368
sg82
g78
sg75
(lp2369
g68
(g89
g70
NtRp2370
(dp2371
g73
(dp2372
g93
g94
ssg82
g2366
sg75
(lp2373
S'is_https'
p2374
asbag68
(g89
g70
NtRp2375
(dp2376
g73
(dp2377
g100
g101
ssg82
g2366
sg75
(lp2378
S':'
asbag68
(g89
g70
NtRp2379
(dp2380
g73
(dp2381
sg82
g2366
sg75
(lp2382
g68
(g69
g70
NtRp2383
(dp2384
g73
(dp2385
g81
I5
ssg82
g2379
sg75
(lp2386
g111
asbasbasbag68
(g84
g70
NtRp2387
(dp2388
g73
(dp2389
sg82
g78
sg75
(lp2390
g68
(g89
g70
NtRp2391
(dp2392
g73
(dp2393
g93
g94
ssg82
g2387
sg75
(lp2394
S'is_local'
p2395
asbag68
(g89
g70
NtRp2396
(dp2397
g73
(dp2398
g100
g101
ssg82
g2387
sg75
(lp2399
S':'
asbag68
(g89
g70
NtRp2400
(dp2401
g73
(dp2402
sg82
g2387
sg75
(lp2403
g68
(g69
g70
NtRp2404
(dp2405
g73
(dp2406
g81
I5
ssg82
g2400
sg75
(lp2407
g1801
asbasbasbag68
(g84
g70
NtRp2408
(dp2409
g73
(dp2410
sg82
g78
sg75
(lp2411
g68
(g89
g70
NtRp2412
(dp2413
g73
(dp2414
g93
g94
ssg82
g2408
sg75
(lp2415
S'is_restful'
p2416
asbag68
(g89
g70
NtRp2417
(dp2418
g73
(dp2419
g100
g101
ssg82
g2408
sg75
(lp2420
S':'
asbag68
(g89
g70
NtRp2421
(dp2422
g73
(dp2423
sg82
g2408
sg75
(lp2424
g68
(g69
g70
NtRp2425
(dp2426
g73
(dp2427
g81
I5
ssg82
g2421
sg75
(lp2428
g111
asbasbasbag68
(g84
g70
NtRp2429
(dp2430
g73
(dp2431
sg82
g78
sg75
(lp2432
g68
(g89
g70
NtRp2433
(dp2434
g73
(dp2435
g93
g94
ssg82
g2429
sg75
(lp2436
S'now'
p2437
asbag68
(g89
g70
NtRp2438
(dp2439
g73
(dp2440
g100
g101
ssg82
g2429
sg75
(lp2441
S':'
asbag68
(g89
g70
NtRp2442
(dp2443
g73
(dp2444
sg82
g2429
sg75
(lp2445
g68
(g69
g70
NtRp2446
(dp2447
g73
(dp2448
g81
I5
ssg82
g2442
sg75
(lp2449
S'datetime.datetime(2013, 9, 1, 8, 50, 43, 359000)'
p2450
asbasbasbag68
(g84
g70
NtRp2451
(dp2452
g73
(dp2453
sg82
g78
sg75
(lp2454
g68
(g89
g70
NtRp2455
(dp2456
g73
(dp2457
g93
g94
ssg82
g2451
sg75
(lp2458
S'post_vars'
p2459
asbag68
(g89
g70
NtRp2460
(dp2461
g73
(dp2462
g100
g101
ssg82
g2451
sg75
(lp2463
S':'
asbag68
(g89
g70
NtRp2464
(dp2465
g73
(dp2466
sg82
g2451
sg75
(lp2467
g68
(g69
g70
NtRp2468
(dp2469
g73
(dp2470
g81
I5
ssg82
g2464
sg75
(lp2471
g68
(g77
g70
NtRp2472
(dp2473
g73
(dp2474
g81
I4
ssg82
Nsg75
(lp2475
sbasbasbasbag68
(g84
g70
NtRp2476
(dp2477
g73
(dp2478
sg82
g78
sg75
(lp2479
g68
(g89
g70
NtRp2480
(dp2481
g73
(dp2482
g93
g94
ssg82
g2476
sg75
(lp2483
S'raw_args'
p2484
asbag68
(g89
g70
NtRp2485
(dp2486
g73
(dp2487
g100
g101
ssg82
g2476
sg75
(lp2488
S':'
asbag68
(g89
g70
NtRp2489
(dp2490
g73
(dp2491
sg82
g2476
sg75
(lp2492
g68
(g69
g70
NtRp2493
(dp2494
g73
(dp2495
g81
I5
ssg82
g2489
sg75
(lp2496
S''
asbasbasbag68
(g84
g70
NtRp2497
(dp2498
g73
(dp2499
sg82
g78
sg75
(lp2500
g68
(g89
g70
NtRp2501
(dp2502
g73
(dp2503
g93
g94
ssg82
g2497
sg75
(lp2504
S'raw_extension'
p2505
asbag68
(g89
g70
NtRp2506
(dp2507
g73
(dp2508
g100
g101
ssg82
g2497
sg75
(lp2509
S':'
asbag68
(g89
g70
NtRp2510
(dp2511
g73
(dp2512
sg82
g2497
sg75
(lp2513
g68
(g69
g70
NtRp2514
(dp2515
g73
(dp2516
g81
I5
ssg82
g2510
sg75
(lp2517
S'None'
p2518
asbasbasbag68
(g84
g70
NtRp2519
(dp2520
g73
(dp2521
sg82
g78
sg75
(lp2522
g68
(g89
g70
NtRp2523
(dp2524
g73
(dp2525
g93
g94
ssg82
g2519
sg75
(lp2526
S'url'
p2527
asbag68
(g89
g70
NtRp2528
(dp2529
g73
(dp2530
g100
g101
ssg82
g2519
sg75
(lp2531
S':'
asbag68
(g89
g70
NtRp2532
(dp2533
g73
(dp2534
sg82
g2519
sg75
(lp2535
g68
(g69
g70
NtRp2536
(dp2537
g73
(dp2538
g81
I5
ssg82
g2532
sg75
(lp2539
g1368
asbasbasbag68
(g84
g70
NtRp2540
(dp2541
g73
(dp2542
sg82
g78
sg75
(lp2543
g68
(g89
g70
NtRp2544
(dp2545
g73
(dp2546
g93
g94
ssg82
g2540
sg75
(lp2547
S'utcnow'
p2548
asbag68
(g89
g70
NtRp2549
(dp2550
g73
(dp2551
g100
g101
ssg82
g2540
sg75
(lp2552
S':'
asbag68
(g89
g70
NtRp2553
(dp2554
g73
(dp2555
sg82
g2540
sg75
(lp2556
g68
(g69
g70
NtRp2557
(dp2558
g73
(dp2559
g81
I5
ssg82
g2553
sg75
(lp2560
S'datetime.datetime(2013, 9, 1, 0, 50, 43, 359000)'
p2561
asbasbasbag68
(g84
g70
NtRp2562
(dp2563
g73
(dp2564
sg82
g78
sg75
(lp2565
g68
(g89
g70
NtRp2566
(dp2567
g73
(dp2568
g93
g94
ssg82
g2562
sg75
(lp2569
S'uuid'
p2570
asbag68
(g89
g70
NtRp2571
(dp2572
g73
(dp2573
g100
g101
ssg82
g2562
sg75
(lp2574
S':'
asbag68
(g89
g70
NtRp2575
(dp2576
g73
(dp2577
sg82
g2562
sg75
(lp2578
g68
(g69
g70
NtRp2579
(dp2580
g73
(dp2581
g81
I5
ssg82
g2575
sg75
(lp2582
S'hw4/127.0.0.1.2013-09-01.08-50-43.b5166321-c88d-4d87-a2b7-3bbf7e8930d7'
p2583
asbasbasbag68
(g84
g70
NtRp2584
(dp2585
g73
(dp2586
sg82
g78
sg75
(lp2587
g68
(g89
g70
NtRp2588
(dp2589
g73
(dp2590
g93
g94
ssg82
g2584
sg75
(lp2591
S'vars'
p2592
asbag68
(g89
g70
NtRp2593
(dp2594
g73
(dp2595
g100
g101
ssg82
g2584
sg75
(lp2596
S':'
asbag68
(g89
g70
NtRp2597
(dp2598
g73
(dp2599
sg82
g2584
sg75
(lp2600
g68
(g69
g70
NtRp2601
(dp2602
g73
(dp2603
g81
I5
ssg82
g2597
sg75
(lp2604
g68
(g77
g70
NtRp2605
(dp2606
g73
(dp2607
g81
I4
ssg82
Nsg75
(lp2608
sbasbasbasbag68
(g84
g70
NtRp2609
(dp2610
g73
(dp2611
sg82
g78
sg75
(lp2612
g68
(g89
g70
NtRp2613
(dp2614
g73
(dp2615
g93
g94
ssg82
g2609
sg75
(lp2616
S'wsgi'
p2617
asbag68
(g89
g70
NtRp2618
(dp2619
g73
(dp2620
g100
g101
ssg82
g2609
sg75
(lp2621
S':'
asbag68
(g89
g70
NtRp2622
(dp2623
g73
(dp2624
sg82
g2609
sg75
(lp2625
g68
(g69
g70
NtRp2626
(dp2627
g73
(dp2628
g81
I5
ssg82
g2622
sg75
(lp2629
g68
(g77
g70
NtRp2630
(dp2631
g73
(dp2632
g81
I4
ssg82
Nsg75
(lp2633
g68
(g84
g70
NtRp2634
(dp2635
g73
(dp2636
sg82
g2630
sg75
(lp2637
g68
(g89
g70
NtRp2638
(dp2639
g73
(dp2640
g93
g94
ssg82
g2634
sg75
(lp2641
S'environ'
p2642
asbag68
(g89
g70
NtRp2643
(dp2644
g73
(dp2645
g100
g101
ssg82
g2634
sg75
(lp2646
S':'
asbag68
(g89
g70
NtRp2647
(dp2648
g73
(dp2649
sg82
g2634
sg75
(lp2650
g68
(g69
g70
NtRp2651
(dp2652
g73
(dp2653
g81
I4
ssg82
g2647
sg75
(lp2654
g68
(g77
g70
NtRp2655
(dp2656
g73
(dp2657
g81
I3
ssg82
Nsg75
(lp2658
g68
(g84
g70
NtRp2659
(dp2660
g73
(dp2661
sg82
g2655
sg75
(lp2662
g68
(g89
g70
NtRp2663
(dp2664
g73
(dp2665
g93
g94
ssg82
g2659
sg75
(lp2666
S'HTTP_ACCEPT'
p2667
asbag68
(g89
g70
NtRp2668
(dp2669
g73
(dp2670
g100
g101
ssg82
g2659
sg75
(lp2671
S':'
asbag68
(g89
g70
NtRp2672
(dp2673
g73
(dp2674
sg82
g2659
sg75
(lp2675
g68
(g69
g70
NtRp2676
(dp2677
g73
(dp2678
g81
I3
ssg82
g2672
sg75
(lp2679
g1039
asbasbasbag68
(g84
g70
NtRp2680
(dp2681
g73
(dp2682
sg82
g2655
sg75
(lp2683
g68
(g89
g70
NtRp2684
(dp2685
g73
(dp2686
g93
g94
ssg82
g2680
sg75
(lp2687
S'HTTP_ACCEPT_ENCODING'
p2688
asbag68
(g89
g70
NtRp2689
(dp2690
g73
(dp2691
g100
g101
ssg82
g2680
sg75
(lp2692
S':'
asbag68
(g89
g70
NtRp2693
(dp2694
g73
(dp2695
sg82
g2680
sg75
(lp2696
g68
(g69
g70
NtRp2697
(dp2698
g73
(dp2699
g81
I3
ssg82
g2693
sg75
(lp2700
g1061
asbasbasbag68
(g84
g70
NtRp2701
(dp2702
g73
(dp2703
sg82
g2655
sg75
(lp2704
g68
(g89
g70
NtRp2705
(dp2706
g73
(dp2707
g93
g94
ssg82
g2701
sg75
(lp2708
S'HTTP_ACCEPT_LANGUAGE'
p2709
asbag68
(g89
g70
NtRp2710
(dp2711
g73
(dp2712
g100
g101
ssg82
g2701
sg75
(lp2713
S':'
asbag68
(g89
g70
NtRp2714
(dp2715
g73
(dp2716
sg82
g2701
sg75
(lp2717
g68
(g69
g70
NtRp2718
(dp2719
g73
(dp2720
g81
I3
ssg82
g2714
sg75
(lp2721
g1083
asbasbasbag68
(g84
g70
NtRp2722
(dp2723
g73
(dp2724
sg82
g2655
sg75
(lp2725
g68
(g89
g70
NtRp2726
(dp2727
g73
(dp2728
g93
g94
ssg82
g2722
sg75
(lp2729
S'HTTP_CACHE_CONTROL'
p2730
asbag68
(g89
g70
NtRp2731
(dp2732
g73
(dp2733
g100
g101
ssg82
g2722
sg75
(lp2734
S':'
asbag68
(g89
g70
NtRp2735
(dp2736
g73
(dp2737
sg82
g2722
sg75
(lp2738
g68
(g69
g70
NtRp2739
(dp2740
g73
(dp2741
g81
I3
ssg82
g2735
sg75
(lp2742
g1105
asbasbasbag68
(g84
g70
NtRp2743
(dp2744
g73
(dp2745
sg82
g2655
sg75
(lp2746
g68
(g89
g70
NtRp2747
(dp2748
g73
(dp2749
g93
g94
ssg82
g2743
sg75
(lp2750
S'HTTP_CONNECTION'
p2751
asbag68
(g89
g70
NtRp2752
(dp2753
g73
(dp2754
g100
g101
ssg82
g2743
sg75
(lp2755
S':'
asbag68
(g89
g70
NtRp2756
(dp2757
g73
(dp2758
sg82
g2743
sg75
(lp2759
g68
(g69
g70
NtRp2760
(dp2761
g73
(dp2762
g81
I3
ssg82
g2756
sg75
(lp2763
g1127
asbasbasbag68
(g84
g70
NtRp2764
(dp2765
g73
(dp2766
sg82
g2655
sg75
(lp2767
g68
(g89
g70
NtRp2768
(dp2769
g73
(dp2770
g93
g94
ssg82
g2764
sg75
(lp2771
S'HTTP_COOKIE'
p2772
asbag68
(g89
g70
NtRp2773
(dp2774
g73
(dp2775
g100
g101
ssg82
g2764
sg75
(lp2776
S':'
asbag68
(g89
g70
NtRp2777
(dp2778
g73
(dp2779
sg82
g2764
sg75
(lp2780
g68
(g69
g70
NtRp2781
(dp2782
g73
(dp2783
g81
I3
ssg82
g2777
sg75
(lp2784
g1149
asbasbasbag68
(g84
g70
NtRp2785
(dp2786
g73
(dp2787
sg82
g2655
sg75
(lp2788
g68
(g89
g70
NtRp2789
(dp2790
g73
(dp2791
g93
g94
ssg82
g2785
sg75
(lp2792
S'HTTP_DNT'
p2793
asbag68
(g89
g70
NtRp2794
(dp2795
g73
(dp2796
g100
g101
ssg82
g2785
sg75
(lp2797
S':'
asbag68
(g89
g70
NtRp2798
(dp2799
g73
(dp2800
sg82
g2785
sg75
(lp2801
g68
(g69
g70
NtRp2802
(dp2803
g73
(dp2804
g81
I3
ssg82
g2798
sg75
(lp2805
S'1'
asbasbasbag68
(g84
g70
NtRp2806
(dp2807
g73
(dp2808
sg82
g2655
sg75
(lp2809
g68
(g89
g70
NtRp2810
(dp2811
g73
(dp2812
g93
g94
ssg82
g2806
sg75
(lp2813
S'HTTP_HOST'
p2814
asbag68
(g89
g70
NtRp2815
(dp2816
g73
(dp2817
g100
g101
ssg82
g2806
sg75
(lp2818
S':'
asbag68
(g89
g70
NtRp2819
(dp2820
g73
(dp2821
sg82
g2806
sg75
(lp2822
g68
(g69
g70
NtRp2823
(dp2824
g73
(dp2825
g81
I3
ssg82
g2819
sg75
(lp2826
g1192
asbasbasbag68
(g84
g70
NtRp2827
(dp2828
g73
(dp2829
sg82
g2655
sg75
(lp2830
g68
(g89
g70
NtRp2831
(dp2832
g73
(dp2833
g93
g94
ssg82
g2827
sg75
(lp2834
S'HTTP_USER_AGENT'
p2835
asbag68
(g89
g70
NtRp2836
(dp2837
g73
(dp2838
g100
g101
ssg82
g2827
sg75
(lp2839
S':'
asbag68
(g89
g70
NtRp2840
(dp2841
g73
(dp2842
sg82
g2827
sg75
(lp2843
g68
(g69
g70
NtRp2844
(dp2845
g73
(dp2846
g81
I3
ssg82
g2840
sg75
(lp2847
g1214
asbasbasbag68
(g84
g70
NtRp2848
(dp2849
g73
(dp2850
sg82
g2655
sg75
(lp2851
g68
(g89
g70
NtRp2852
(dp2853
g73
(dp2854
g93
g94
ssg82
g2848
sg75
(lp2855
S'PATH_INFO'
p2856
asbag68
(g89
g70
NtRp2857
(dp2858
g73
(dp2859
g100
g101
ssg82
g2848
sg75
(lp2860
S':'
asbag68
(g89
g70
NtRp2861
(dp2862
g73
(dp2863
sg82
g2848
sg75
(lp2864
g68
(g69
g70
NtRp2865
(dp2866
g73
(dp2867
g81
I3
ssg82
g2861
sg75
(lp2868
g1368
asbasbasbag68
(g84
g70
NtRp2869
(dp2870
g73
(dp2871
sg82
g2655
sg75
(lp2872
g68
(g89
g70
NtRp2873
(dp2874
g73
(dp2875
g93
g94
ssg82
g2869
sg75
(lp2876
S'QUERY_STRING'
p2877
asbag68
(g89
g70
NtRp2878
(dp2879
g73
(dp2880
g100
g101
ssg82
g2869
sg75
(lp2881
S':'
asbag68
(g89
g70
NtRp2882
(dp2883
g73
(dp2884
sg82
g2869
sg75
(lp2885
g68
(g69
g70
NtRp2886
(dp2887
g73
(dp2888
g81
I3
ssg82
g2882
sg75
(lp2889
S''
asbasbasbag68
(g84
g70
NtRp2890
(dp2891
g73
(dp2892
sg82
g2655
sg75
(lp2893
g68
(g89
g70
NtRp2894
(dp2895
g73
(dp2896
g93
g94
ssg82
g2890
sg75
(lp2897
S'REMOTE_ADDR'
p2898
asbag68
(g89
g70
NtRp2899
(dp2900
g73
(dp2901
g100
g101
ssg82
g2890
sg75
(lp2902
S':'
asbag68
(g89
g70
NtRp2903
(dp2904
g73
(dp2905
sg82
g2890
sg75
(lp2906
g68
(g69
g70
NtRp2907
(dp2908
g73
(dp2909
g81
I3
ssg82
g2903
sg75
(lp2910
g223
asbasbasbag68
(g84
g70
NtRp2911
(dp2912
g73
(dp2913
sg82
g2655
sg75
(lp2914
g68
(g89
g70
NtRp2915
(dp2916
g73
(dp2917
g93
g94
ssg82
g2911
sg75
(lp2918
S'REMOTE_PORT'
p2919
asbag68
(g89
g70
NtRp2920
(dp2921
g73
(dp2922
g100
g101
ssg82
g2911
sg75
(lp2923
S':'
asbag68
(g89
g70
NtRp2924
(dp2925
g73
(dp2926
sg82
g2911
sg75
(lp2927
g68
(g69
g70
NtRp2928
(dp2929
g73
(dp2930
g81
I3
ssg82
g2924
sg75
(lp2931
g1432
asbasbasbag68
(g84
g70
NtRp2932
(dp2933
g73
(dp2934
sg82
g2655
sg75
(lp2935
g68
(g89
g70
NtRp2936
(dp2937
g73
(dp2938
g93
g94
ssg82
g2932
sg75
(lp2939
S'REQUEST_METHOD'
p2940
asbag68
(g89
g70
NtRp2941
(dp2942
g73
(dp2943
g100
g101
ssg82
g2932
sg75
(lp2944
S':'
asbag68
(g89
g70
NtRp2945
(dp2946
g73
(dp2947
sg82
g2932
sg75
(lp2948
g68
(g69
g70
NtRp2949
(dp2950
g73
(dp2951
g81
I3
ssg82
g2945
sg75
(lp2952
g1454
asbasbasbag68
(g84
g70
NtRp2953
(dp2954
g73
(dp2955
sg82
g2655
sg75
(lp2956
g68
(g89
g70
NtRp2957
(dp2958
g73
(dp2959
g93
g94
ssg82
g2953
sg75
(lp2960
S'REQUEST_URI'
p2961
asbag68
(g89
g70
NtRp2962
(dp2963
g73
(dp2964
g100
g101
ssg82
g2953
sg75
(lp2965
S':'
asbag68
(g89
g70
NtRp2966
(dp2967
g73
(dp2968
sg82
g2953
sg75
(lp2969
g68
(g69
g70
NtRp2970
(dp2971
g73
(dp2972
g81
I3
ssg82
g2966
sg75
(lp2973
g1368
asbasbasbag68
(g84
g70
NtRp2974
(dp2975
g73
(dp2976
sg82
g2655
sg75
(lp2977
g68
(g89
g70
NtRp2978
(dp2979
g73
(dp2980
g93
g94
ssg82
g2974
sg75
(lp2981
S'SCRIPT_NAME'
p2982
asbag68
(g89
g70
NtRp2983
(dp2984
g73
(dp2985
g100
g101
ssg82
g2974
sg75
(lp2986
S':'
asbag68
(g89
g70
NtRp2987
(dp2988
g73
(dp2989
sg82
g2974
sg75
(lp2990
g68
(g69
g70
NtRp2991
(dp2992
g73
(dp2993
g81
I3
ssg82
g2987
sg75
(lp2994
S''
asbasbasbag68
(g84
g70
NtRp2995
(dp2996
g73
(dp2997
sg82
g2655
sg75
(lp2998
g68
(g89
g70
NtRp2999
(dp3000
g73
(dp3001
g93
g94
ssg82
g2995
sg75
(lp3002
S'SERVER_NAME'
p3003
asbag68
(g89
g70
NtRp3004
(dp3005
g73
(dp3006
g100
g101
ssg82
g2995
sg75
(lp3007
S':'
asbag68
(g89
g70
NtRp3008
(dp3009
g73
(dp3010
sg82
g2995
sg75
(lp3011
g68
(g69
g70
NtRp3012
(dp3013
g73
(dp3014
g81
I3
ssg82
g3008
sg75
(lp3015
g1518
asbasbasbag68
(g84
g70
NtRp3016
(dp3017
g73
(dp3018
sg82
g2655
sg75
(lp3019
g68
(g89
g70
NtRp3020
(dp3021
g73
(dp3022
g93
g94
ssg82
g3016
sg75
(lp3023
S'SERVER_PORT'
p3024
asbag68
(g89
g70
NtRp3025
(dp3026
g73
(dp3027
g100
g101
ssg82
g3016
sg75
(lp3028
S':'
asbag68
(g89
g70
NtRp3029
(dp3030
g73
(dp3031
sg82
g3016
sg75
(lp3032
g68
(g69
g70
NtRp3033
(dp3034
g73
(dp3035
g81
I3
ssg82
g3029
sg75
(lp3036
g1540
asbasbasbag68
(g84
g70
NtRp3037
(dp3038
g73
(dp3039
sg82
g2655
sg75
(lp3040
g68
(g89
g70
NtRp3041
(dp3042
g73
(dp3043
g93
g94
ssg82
g3037
sg75
(lp3044
S'SERVER_PROTOCOL'
p3045
asbag68
(g89
g70
NtRp3046
(dp3047
g73
(dp3048
g100
g101
ssg82
g3037
sg75
(lp3049
S':'
asbag68
(g89
g70
NtRp3050
(dp3051
g73
(dp3052
sg82
g3037
sg75
(lp3053
g68
(g69
g70
NtRp3054
(dp3055
g73
(dp3056
g81
I3
ssg82
g3050
sg75
(lp3057
g1562
asbasbasbag68
(g84
g70
NtRp3058
(dp3059
g73
(dp3060
sg82
g2655
sg75
(lp3061
g68
(g89
g70
NtRp3062
(dp3063
g73
(dp3064
g93
g94
ssg82
g3058
sg75
(lp3065
S'SERVER_SOFTWARE'
p3066
asbag68
(g89
g70
NtRp3067
(dp3068
g73
(dp3069
g100
g101
ssg82
g3058
sg75
(lp3070
S':'
asbag68
(g89
g70
NtRp3071
(dp3072
g73
(dp3073
sg82
g3058
sg75
(lp3074
g68
(g69
g70
NtRp3075
(dp3076
g73
(dp3077
g81
I3
ssg82
g3071
sg75
(lp3078
g1584
asbasbasbag68
(g84
g70
NtRp3079
(dp3080
g73
(dp3081
sg82
g2655
sg75
(lp3082
g68
(g89
g70
NtRp3083
(dp3084
g73
(dp3085
g93
g94
ssg82
g3079
sg75
(lp3086
S'wsgi.errors'
p3087
asbag68
(g89
g70
NtRp3088
(dp3089
g73
(dp3090
g100
g101
ssg82
g3079
sg75
(lp3091
S':'
asbag68
(g89
g70
NtRp3092
(dp3093
g73
(dp3094
sg82
g3079
sg75
(lp3095
g68
(g69
g70
NtRp3096
(dp3097
g73
(dp3098
g81
I3
ssg82
g3092
sg75
(lp3099
S"<open file '<stderr>', mode 'w' at 0x00AD50D0>"
p3100
asbasbasbag68
(g84
g70
NtRp3101
(dp3102
g73
(dp3103
sg82
g2655
sg75
(lp3104
g68
(g89
g70
NtRp3105
(dp3106
g73
(dp3107
g93
g94
ssg82
g3101
sg75
(lp3108
S'wsgi.file_wrapper'
p3109
asbag68
(g89
g70
NtRp3110
(dp3111
g73
(dp3112
g100
g101
ssg82
g3101
sg75
(lp3113
S':'
asbag68
(g89
g70
NtRp3114
(dp3115
g73
(dp3116
sg82
g3101
sg75
(lp3117
g68
(g69
g70
NtRp3118
(dp3119
g73
(dp3120
g81
I3
ssg82
g3114
sg75
(lp3121
S'<class wsgiref.util.FileWrapper at 0x01736C38>'
p3122
asbasbasbag68
(g84
g70
NtRp3123
(dp3124
g73
(dp3125
sg82
g2655
sg75
(lp3126
g68
(g89
g70
NtRp3127
(dp3128
g73
(dp3129
g93
g94
ssg82
g3123
sg75
(lp3130
S'wsgi.input'
p3131
asbag68
(g89
g70
NtRp3132
(dp3133
g73
(dp3134
g100
g101
ssg82
g3123
sg75
(lp3135
S':'
asbag68
(g89
g70
NtRp3136
(dp3137
g73
(dp3138
sg82
g3123
sg75
(lp3139
g68
(g69
g70
NtRp3140
(dp3141
g73
(dp3142
g81
I3
ssg82
g3136
sg75
(lp3143
S'<cStringIO.StringO object at 0x057388C0>'
p3144
asbasbasbag68
(g84
g70
NtRp3145
(dp3146
g73
(dp3147
sg82
g2655
sg75
(lp3148
g68
(g89
g70
NtRp3149
(dp3150
g73
(dp3151
g93
g94
ssg82
g3145
sg75
(lp3152
S'wsgi.multiprocess'
p3153
asbag68
(g89
g70
NtRp3154
(dp3155
g73
(dp3156
g100
g101
ssg82
g3145
sg75
(lp3157
S':'
asbag68
(g89
g70
NtRp3158
(dp3159
g73
(dp3160
sg82
g3145
sg75
(lp3161
g68
(g69
g70
NtRp3162
(dp3163
g73
(dp3164
g81
I3
ssg82
g3158
sg75
(lp3165
g111
asbasbasbag68
(g84
g70
NtRp3166
(dp3167
g73
(dp3168
sg82
g2655
sg75
(lp3169
g68
(g89
g70
NtRp3170
(dp3171
g73
(dp3172
g93
g94
ssg82
g3166
sg75
(lp3173
S'wsgi.multithread'
p3174
asbag68
(g89
g70
NtRp3175
(dp3176
g73
(dp3177
g100
g101
ssg82
g3166
sg75
(lp3178
S':'
asbag68
(g89
g70
NtRp3179
(dp3180
g73
(dp3181
sg82
g3166
sg75
(lp3182
g68
(g69
g70
NtRp3183
(dp3184
g73
(dp3185
g81
I3
ssg82
g3179
sg75
(lp3186
g1801
asbasbasbag68
(g84
g70
NtRp3187
(dp3188
g73
(dp3189
sg82
g2655
sg75
(lp3190
g68
(g89
g70
NtRp3191
(dp3192
g73
(dp3193
g93
g94
ssg82
g3187
sg75
(lp3194
S'wsgi.run_once'
p3195
asbag68
(g89
g70
NtRp3196
(dp3197
g73
(dp3198
g100
g101
ssg82
g3187
sg75
(lp3199
S':'
asbag68
(g89
g70
NtRp3200
(dp3201
g73
(dp3202
sg82
g3187
sg75
(lp3203
g68
(g69
g70
NtRp3204
(dp3205
g73
(dp3206
g81
I3
ssg82
g3200
sg75
(lp3207
g111
asbasbasbag68
(g84
g70
NtRp3208
(dp3209
g73
(dp3210
sg82
g2655
sg75
(lp3211
g68
(g89
g70
NtRp3212
(dp3213
g73
(dp3214
g93
g94
ssg82
g3208
sg75
(lp3215
S'wsgi.url_scheme'
p3216
asbag68
(g89
g70
NtRp3217
(dp3218
g73
(dp3219
g100
g101
ssg82
g3208
sg75
(lp3220
S':'
asbag68
(g89
g70
NtRp3221
(dp3222
g73
(dp3223
sg82
g3208
sg75
(lp3224
g68
(g69
g70
NtRp3225
(dp3226
g73
(dp3227
g81
I3
ssg82
g3221
sg75
(lp3228
g1844
asbasbasbag68
(g84
g70
NtRp3229
(dp3230
g73
(dp3231
sg82
g2655
sg75
(lp3232
g68
(g89
g70
NtRp3233
(dp3234
g73
(dp3235
g93
g94
ssg82
g3229
sg75
(lp3236
S'wsgi.version'
p3237
asbag68
(g89
g70
NtRp3238
(dp3239
g73
(dp3240
g100
g101
ssg82
g3229
sg75
(lp3241
S':'
asbag68
(g89
g70
NtRp3242
(dp3243
g73
(dp3244
sg82
g3229
sg75
(lp3245
g68
(g69
g70
NtRp3246
(dp3247
g73
(dp3248
g81
I3
ssg82
g3242
sg75
(lp3249
S'1'
asbasbasbasbasbasbasbasbasbasbasbasbasbsS'frames'
p3250
(lp3251
(dp3252
S'file'
p3253
S'C:\\Python27\\web2py\\gluon\\restricted.py'
p3254
sS'dump'
p3255
(dp3256
S'code'
p3257
S"'# coding: utf8\\n# \\xe5\\xb0\\x9d\\xe8\\xaf\\x95\\n@auth.requires(requires_...rm=form)\\n\\nresponse._vars=response._caller(index)\\n'"
p3258
sS'layer'
p3259
S"r'C:\\Python27\\web2py\\applications\\hw4\\controllers/teacher.py'"
p3260
sS'global compile2'
p3261
S'<function compile2>'
p3262
sS'ccode'
p3263
S'undefined'
p3264
ssS'lnum'
p3265
I211
sS'lines'
p3266
(dp3267
I206
S"    environment['__name__'] = '__restricted__'"
p3268
sI207
S'    try:'
p3269
sI208
S'        if isinstance(code, types.CodeType):'
p3270
sI209
S'            ccode = code'
p3271
sI210
S'        else:'
p3272
sI211
S'            ccode = compile2(code, layer)'
p3273
sI212
S'        exec ccode in environment'
p3274
sI213
S'    except HTTP:'
p3275
sI214
S'        raise'
p3276
sI215
S'    except RestrictedError:'
p3277
ssS'call'
p3278
S"(code='# coding: utf8\\n# \\xe5\\xb0\\x9d\\xe8\\xaf\\x95\\n@auth.requires(requires_...rm=form)\\n\\nresponse._vars=response._caller(index)\\n', environment={'A': <class 'gluon.html.A'>, 'Auth': <class 'gluon.tools.Auth'>, 'B': <class 'gluon.html.B'>, 'BEAUTIFY': <class 'gluon.html.BEAUTIFY'>, 'BODY': <class 'gluon.html.BODY'>, 'BR': <class 'gluon.html.BR'>, 'BUTTON': <class 'gluon.html.BUTTON'>, 'CAT': <class 'gluon.html.CAT'>, 'CENTER': <class 'gluon.html.CENTER'>, 'CLEANUP': <class 'gluon.validators.CLEANUP'>, ...}, layer=r'C:\\Python27\\web2py\\applications\\hw4\\controllers/teacher.py')"
p3279
sS'func'
p3280
S'restricted'
p3281
sa(dp3282
g3253
S'C:\\Python27\\web2py\\gluon\\restricted.py'
p3283
sg3255
(dp3284
S'builtincompile'
p3285
S'<built-in function compile>'
p3286
sS'code'
p3287
S"'# coding: utf8\\n# \\xe5\\xb0\\x9d\\xe8\\xaf\\x95\\n@auth.requires(requires_...rm=form)\\n\\nresponse._vars=response._caller(index)\\n'"
p3288
sS'code.rstrip'
p3289
S'<built-in method rstrip of str object>'
p3290
sS').replace'
p3291
g3264
sS'layer'
p3292
S"r'C:\\Python27\\web2py\\applications\\hw4\\controllers/teacher.py'"
p3293
ssg3265
I194
sg3266
(dp3294
I192
S"    The +'\\n' is necessary else compile fails when code ends in a comment."
p3295
sI193
S'    """'
p3296
sI194
S"    return compile(code.rstrip().replace('\\r\\n', '\\n') + '\\n', layer, 'exec')"
p3297
sI195
S''
sI196
S''
sI197
S"def restricted(code, environment=None, layer='Unknown'):"
p3298
sI198
S'    """'
p3299
sI189
S''
sI190
S'def compile2(code, layer):'
p3300
sI191
S'    """'
p3301
ssg3278
S"(code='# coding: utf8\\n# \\xe5\\xb0\\x9d\\xe8\\xaf\\x95\\n@auth.requires(requires_...rm=form)\\n\\nresponse._vars=response._caller(index)\\n', layer=r'C:\\Python27\\web2py\\applications\\hw4\\controllers/teacher.py')"
p3302
sg3280
S'compile2'
p3303
sasS'pyver'
p3304
S'Python 2.7.3: C:\\Python27\\python.exe'
p3305
sS'session'
p3306
g68
(g69
g70
NtRp3307
(dp3308
g73
(dp3309
sg75
(lp3310
g68
(g77
g70
NtRp3311
(dp3312
g73
(dp3313
g81
I5
ssg82
Nsg75
(lp3314
g68
(g84
g70
NtRp3315
(dp3316
g73
(dp3317
sg82
g3311
sg75
(lp3318
g68
(g89
g70
NtRp3319
(dp3320
g73
(dp3321
g93
g94
ssg82
g3315
sg75
(lp3322
S'flash'
p3323
asbag68
(g89
g70
NtRp3324
(dp3325
g73
(dp3326
g100
g101
ssg82
g3315
sg75
(lp3327
S':'
asbag68
(g89
g70
NtRp3328
(dp3329
g73
(dp3330
sg82
g3315
sg75
(lp3331
g68
(g69
g70
NtRp3332
(dp3333
g73
(dp3334
g81
I5
ssg82
g3328
sg75
(lp3335
S'None'
p3336
asbasbasbag68
(g84
g70
NtRp3337
(dp3338
g73
(dp3339
sg82
g3311
sg75
(lp3340
g68
(g89
g70
NtRp3341
(dp3342
g73
(dp3343
g93
g94
ssg82
g3337
sg75
(lp3344
S'last_orderby'
p3345
asbag68
(g89
g70
NtRp3346
(dp3347
g73
(dp3348
g100
g101
ssg82
g3337
sg75
(lp3349
S':'
asbag68
(g89
g70
NtRp3350
(dp3351
g73
(dp3352
sg82
g3337
sg75
(lp3353
g68
(g69
g70
NtRp3354
(dp3355
g73
(dp3356
g81
I5
ssg82
g3350
sg75
(lp3357
S'None'
p3358
asbasbasbag68
(g84
g70
NtRp3359
(dp3360
g73
(dp3361
sg82
g3311
sg75
(lp3362
g68
(g89
g70
NtRp3363
(dp3364
g73
(dp3365
g93
g94
ssg82
g3359
sg75
(lp3366
S'last_query'
p3367
asbag68
(g89
g70
NtRp3368
(dp3369
g73
(dp3370
g100
g101
ssg82
g3359
sg75
(lp3371
S':'
asbag68
(g89
g70
NtRp3372
(dp3373
g73
(dp3374
sg82
g3359
sg75
(lp3375
g68
(g69
g70
NtRp3376
(dp3377
g73
(dp3378
g81
I5
ssg82
g3372
sg75
(lp3379
S'db.auth_membership.id>0'
p3380
asbasbasbasbasbsS'etype'
p3381
S"<type 'exceptions.SyntaxError'>"
p3382
sS'date'
p3383
S'Sun Sep 01 08:50:43 2013'
p3384
sS'response'
p3385
g68
(g69
g70
NtRp3386
(dp3387
g73
(dp3388
sg75
(lp3389
g68
(g77
g70
NtRp3390
(dp3391
g73
(dp3392
g81
I5
ssg82
Nsg75
(lp3393
g68
(g84
g70
NtRp3394
(dp3395
g73
(dp3396
sg82
g3390
sg75
(lp3397
g68
(g89
g70
NtRp3398
(dp3399
g73
(dp3400
g93
g94
ssg82
g3394
sg75
(lp3401
g166
asbag68
(g89
g70
NtRp3402
(dp3403
g73
(dp3404
g100
g101
ssg82
g3394
sg75
(lp3405
S':'
asbag68
(g89
g70
NtRp3406
(dp3407
g73
(dp3408
sg82
g3394
sg75
(lp3409
g68
(g69
g70
NtRp3410
(dp3411
g73
(dp3412
g81
I5
ssg82
g3406
sg75
(lp3413
S'<cStringIO.StringO object at 0x05FA0C60>'
p3414
asbasbasbag68
(g84
g70
NtRp3415
(dp3416
g73
(dp3417
sg82
g3390
sg75
(lp3418
g68
(g89
g70
NtRp3419
(dp3420
g73
(dp3421
g93
g94
ssg82
g3415
sg75
(lp3422
g254
asbag68
(g89
g70
NtRp3423
(dp3424
g73
(dp3425
g100
g101
ssg82
g3415
sg75
(lp3426
S':'
asbag68
(g89
g70
NtRp3427
(dp3428
g73
(dp3429
sg82
g3415
sg75
(lp3430
g68
(g69
g70
NtRp3431
(dp3432
g73
(dp3433
g81
I5
ssg82
g3427
sg75
(lp3434
g68
(g77
g70
NtRp3435
(dp3436
g73
(dp3437
g81
I4
ssg82
Nsg75
(lp3438
g68
(g84
g70
NtRp3439
(dp3440
g73
(dp3441
sg82
g3435
sg75
(lp3442
g68
(g89
g70
NtRp3443
(dp3444
g73
(dp3445
g93
g94
ssg82
g3439
sg75
(lp3446
S'session_id_hw4'
p3447
asbag68
(g89
g70
NtRp3448
(dp3449
g73
(dp3450
g100
g101
ssg82
g3439
sg75
(lp3451
S':'
asbag68
(g89
g70
NtRp3452
(dp3453
g73
(dp3454
sg82
g3439
sg75
(lp3455
g68
(g69
g70
NtRp3456
(dp3457
g73
(dp3458
g81
I4
ssg82
g3452
sg75
(lp3459
g486
ag68
(g77
g70
NtRp3460
(dp3461
g73
(dp3462
g81
I3
ssg82
Nsg75
(lp3463
g68
(g84
g70
NtRp3464
(dp3465
g73
(dp3466
sg82
g3460
sg75
(lp3467
g68
(g89
g70
NtRp3468
(dp3469
g73
(dp3470
g93
g94
ssg82
g3464
sg75
(lp3471
g305
asbag68
(g89
g70
NtRp3472
(dp3473
g73
(dp3474
g100
g101
ssg82
g3464
sg75
(lp3475
S':'
asbag68
(g89
g70
NtRp3476
(dp3477
g73
(dp3478
sg82
g3464
sg75
(lp3479
g68
(g69
g70
NtRp3480
(dp3481
g73
(dp3482
g81
I3
ssg82
g3476
sg75
(lp3483
S''
asbasbasbag68
(g84
g70
NtRp3484
(dp3485
g73
(dp3486
sg82
g3460
sg75
(lp3487
g68
(g89
g70
NtRp3488
(dp3489
g73
(dp3490
g93
g94
ssg82
g3484
sg75
(lp3491
g326
asbag68
(g89
g70
NtRp3492
(dp3493
g73
(dp3494
g100
g101
ssg82
g3484
sg75
(lp3495
S':'
asbag68
(g89
g70
NtRp3496
(dp3497
g73
(dp3498
sg82
g3484
sg75
(lp3499
g68
(g69
g70
NtRp3500
(dp3501
g73
(dp3502
g81
I3
ssg82
g3496
sg75
(lp3503
S''
asbasbasbag68
(g84
g70
NtRp3504
(dp3505
g73
(dp3506
sg82
g3460
sg75
(lp3507
g68
(g89
g70
NtRp3508
(dp3509
g73
(dp3510
g93
g94
ssg82
g3504
sg75
(lp3511
g347
asbag68
(g89
g70
NtRp3512
(dp3513
g73
(dp3514
g100
g101
ssg82
g3504
sg75
(lp3515
S':'
asbag68
(g89
g70
NtRp3516
(dp3517
g73
(dp3518
sg82
g3504
sg75
(lp3519
g68
(g69
g70
NtRp3520
(dp3521
g73
(dp3522
g81
I3
ssg82
g3516
sg75
(lp3523
S''
asbasbasbag68
(g84
g70
NtRp3524
(dp3525
g73
(dp3526
sg82
g3460
sg75
(lp3527
g68
(g89
g70
NtRp3528
(dp3529
g73
(dp3530
g93
g94
ssg82
g3524
sg75
(lp3531
g368
asbag68
(g89
g70
NtRp3532
(dp3533
g73
(dp3534
g100
g101
ssg82
g3524
sg75
(lp3535
S':'
asbag68
(g89
g70
NtRp3536
(dp3537
g73
(dp3538
sg82
g3524
sg75
(lp3539
g68
(g69
g70
NtRp3540
(dp3541
g73
(dp3542
g81
I3
ssg82
g3536
sg75
(lp3543
S''
asbasbasbag68
(g84
g70
NtRp3544
(dp3545
g73
(dp3546
sg82
g3460
sg75
(lp3547
g68
(g89
g70
NtRp3548
(dp3549
g73
(dp3550
g93
g94
ssg82
g3544
sg75
(lp3551
g389
asbag68
(g89
g70
NtRp3552
(dp3553
g73
(dp3554
g100
g101
ssg82
g3544
sg75
(lp3555
S':'
asbag68
(g89
g70
NtRp3556
(dp3557
g73
(dp3558
sg82
g3544
sg75
(lp3559
g68
(g69
g70
NtRp3560
(dp3561
g73
(dp3562
g81
I3
ssg82
g3556
sg75
(lp3563
S''
asbasbasbag68
(g84
g70
NtRp3564
(dp3565
g73
(dp3566
sg82
g3460
sg75
(lp3567
g68
(g89
g70
NtRp3568
(dp3569
g73
(dp3570
g93
g94
ssg82
g3564
sg75
(lp3571
g410
asbag68
(g89
g70
NtRp3572
(dp3573
g73
(dp3574
g100
g101
ssg82
g3564
sg75
(lp3575
S':'
asbag68
(g89
g70
NtRp3576
(dp3577
g73
(dp3578
sg82
g3564
sg75
(lp3579
g68
(g69
g70
NtRp3580
(dp3581
g73
(dp3582
g81
I3
ssg82
g3576
sg75
(lp3583
S'/'
asbasbasbag68
(g84
g70
NtRp3584
(dp3585
g73
(dp3586
sg82
g3460
sg75
(lp3587
g68
(g89
g70
NtRp3588
(dp3589
g73
(dp3590
g93
g94
ssg82
g3584
sg75
(lp3591
g431
asbag68
(g89
g70
NtRp3592
(dp3593
g73
(dp3594
g100
g101
ssg82
g3584
sg75
(lp3595
S':'
asbag68
(g89
g70
NtRp3596
(dp3597
g73
(dp3598
sg82
g3584
sg75
(lp3599
g68
(g69
g70
NtRp3600
(dp3601
g73
(dp3602
g81
I3
ssg82
g3596
sg75
(lp3603
S''
asbasbasbag68
(g84
g70
NtRp3604
(dp3605
g73
(dp3606
sg82
g3460
sg75
(lp3607
g68
(g89
g70
NtRp3608
(dp3609
g73
(dp3610
g93
g94
ssg82
g3604
sg75
(lp3611
g452
asbag68
(g89
g70
NtRp3612
(dp3613
g73
(dp3614
g100
g101
ssg82
g3604
sg75
(lp3615
S':'
asbag68
(g89
g70
NtRp3616
(dp3617
g73
(dp3618
sg82
g3604
sg75
(lp3619
g68
(g69
g70
NtRp3620
(dp3621
g73
(dp3622
g81
I3
ssg82
g3616
sg75
(lp3623
S''
asbasbasbasbasbasbasbasbasbasbasbag68
(g84
g70
NtRp3624
(dp3625
g73
(dp3626
sg82
g3390
sg75
(lp3627
g68
(g89
g70
NtRp3628
(dp3629
g73
(dp3630
g93
g94
ssg82
g3624
sg75
(lp3631
S'delimiters'
p3632
asbag68
(g89
g70
NtRp3633
(dp3634
g73
(dp3635
g100
g101
ssg82
g3624
sg75
(lp3636
S':'
asbag68
(g89
g70
NtRp3637
(dp3638
g73
(dp3639
sg82
g3624
sg75
(lp3640
g68
(g69
g70
NtRp3641
(dp3642
g73
(dp3643
g81
I5
ssg82
g3637
sg75
(lp3644
g68
(g77
g70
NtRp3645
(dp3646
g73
(dp3647
g81
I4
ssg82
Nsg75
(lp3648
g68
(g84
g70
NtRp3649
(dp3650
g73
(dp3651
sg82
g3645
sg75
(lp3652
g68
(g89
g70
NtRp3653
(dp3654
g73
(dp3655
sg82
g3649
sg75
(lp3656
g68
(g69
g70
NtRp3657
(dp3658
g73
(dp3659
g81
I4
ssg82
g3653
sg75
(lp3660
S'{{'
p3661
asbasbasbag68
(g84
g70
NtRp3662
(dp3663
g73
(dp3664
sg82
g3645
sg75
(lp3665
g68
(g89
g70
NtRp3666
(dp3667
g73
(dp3668
sg82
g3662
sg75
(lp3669
g68
(g69
g70
NtRp3670
(dp3671
g73
(dp3672
g81
I4
ssg82
g3666
sg75
(lp3673
S'}}'
p3674
asbasbasbasbasbasbasbag68
(g84
g70
NtRp3675
(dp3676
g73
(dp3677
sg82
g3390
sg75
(lp3678
g68
(g89
g70
NtRp3679
(dp3680
g73
(dp3681
g93
g94
ssg82
g3675
sg75
(lp3682
S'files'
p3683
asbag68
(g89
g70
NtRp3684
(dp3685
g73
(dp3686
g100
g101
ssg82
g3675
sg75
(lp3687
S':'
asbag68
(g89
g70
NtRp3688
(dp3689
g73
(dp3690
sg82
g3675
sg75
(lp3691
g68
(g69
g70
NtRp3692
(dp3693
g73
(dp3694
g81
I5
ssg82
g3688
sg75
(lp3695
g68
(g77
g70
NtRp3696
(dp3697
g73
(dp3698
g81
I4
ssg82
Nsg75
(lp3699
sbasbasbasbag68
(g84
g70
NtRp3700
(dp3701
g73
(dp3702
sg82
g3390
sg75
(lp3703
g68
(g89
g70
NtRp3704
(dp3705
g73
(dp3706
g93
g94
ssg82
g3700
sg75
(lp3707
S'flash'
p3708
asbag68
(g89
g70
NtRp3709
(dp3710
g73
(dp3711
g100
g101
ssg82
g3700
sg75
(lp3712
S':'
asbag68
(g89
g70
NtRp3713
(dp3714
g73
(dp3715
sg82
g3700
sg75
(lp3716
g68
(g69
g70
NtRp3717
(dp3718
g73
(dp3719
g81
I5
ssg82
g3713
sg75
(lp3720
S''
asbasbasbag68
(g84
g70
NtRp3721
(dp3722
g73
(dp3723
sg82
g3390
sg75
(lp3724
g68
(g89
g70
NtRp3725
(dp3726
g73
(dp3727
g93
g94
ssg82
g3721
sg75
(lp3728
S'generic_patterns'
p3729
asbag68
(g89
g70
NtRp3730
(dp3731
g73
(dp3732
g100
g101
ssg82
g3721
sg75
(lp3733
S':'
asbag68
(g89
g70
NtRp3734
(dp3735
g73
(dp3736
sg82
g3721
sg75
(lp3737
g68
(g69
g70
NtRp3738
(dp3739
g73
(dp3740
g81
I5
ssg82
g3734
sg75
(lp3741
g68
(g77
g70
NtRp3742
(dp3743
g73
(dp3744
g81
I4
ssg82
Nsg75
(lp3745
g68
(g84
g70
NtRp3746
(dp3747
g73
(dp3748
sg82
g3742
sg75
(lp3749
g68
(g89
g70
NtRp3750
(dp3751
g73
(dp3752
sg82
g3746
sg75
(lp3753
g68
(g69
g70
NtRp3754
(dp3755
g73
(dp3756
g81
I4
ssg82
g3750
sg75
(lp3757
S'*'
asbasbasbasbasbasbasbag68
(g84
g70
NtRp3758
(dp3759
g73
(dp3760
sg82
g3390
sg75
(lp3761
g68
(g89
g70
NtRp3762
(dp3763
g73
(dp3764
g93
g94
ssg82
g3758
sg75
(lp3765
S'google_analytics_id'
p3766
asbag68
(g89
g70
NtRp3767
(dp3768
g73
(dp3769
g100
g101
ssg82
g3758
sg75
(lp3770
S':'
asbag68
(g89
g70
NtRp3771
(dp3772
g73
(dp3773
sg82
g3758
sg75
(lp3774
g68
(g69
g70
NtRp3775
(dp3776
g73
(dp3777
g81
I5
ssg82
g3771
sg75
(lp3778
S'None'
p3779
asbasbasbag68
(g84
g70
NtRp3780
(dp3781
g73
(dp3782
sg82
g3390
sg75
(lp3783
g68
(g89
g70
NtRp3784
(dp3785
g73
(dp3786
g93
g94
ssg82
g3780
sg75
(lp3787
S'headers'
p3788
asbag68
(g89
g70
NtRp3789
(dp3790
g73
(dp3791
g100
g101
ssg82
g3780
sg75
(lp3792
S':'
asbag68
(g89
g70
NtRp3793
(dp3794
g73
(dp3795
sg82
g3780
sg75
(lp3796
g68
(g69
g70
NtRp3797
(dp3798
g73
(dp3799
g81
I5
ssg82
g3793
sg75
(lp3800
g68
(g77
g70
NtRp3801
(dp3802
g73
(dp3803
g81
I4
ssg82
Nsg75
(lp3804
g68
(g84
g70
NtRp3805
(dp3806
g73
(dp3807
sg82
g3801
sg75
(lp3808
g68
(g89
g70
NtRp3809
(dp3810
g73
(dp3811
g93
g94
ssg82
g3805
sg75
(lp3812
S'X-Powered-By'
p3813
asbag68
(g89
g70
NtRp3814
(dp3815
g73
(dp3816
g100
g101
ssg82
g3805
sg75
(lp3817
S':'
asbag68
(g89
g70
NtRp3818
(dp3819
g73
(dp3820
sg82
g3805
sg75
(lp3821
g68
(g69
g70
NtRp3822
(dp3823
g73
(dp3824
g81
I4
ssg82
g3818
sg75
(lp3825
S'web2py'
p3826
asbasbasbasbasbasbasbag68
(g84
g70
NtRp3827
(dp3828
g73
(dp3829
sg82
g3390
sg75
(lp3830
g68
(g89
g70
NtRp3831
(dp3832
g73
(dp3833
g93
g94
ssg82
g3827
sg75
(lp3834
S'logo'
p3835
asbag68
(g89
g70
NtRp3836
(dp3837
g73
(dp3838
g100
g101
ssg82
g3827
sg75
(lp3839
S':'
asbag68
(g89
g70
NtRp3840
(dp3841
g73
(dp3842
sg82
g3827
sg75
(lp3843
g68
(g69
g70
NtRp3844
(dp3845
g73
(dp3846
g81
I5
ssg82
g3840
sg75
(lp3847
g68
(cgluon.html
A
p3848
g70
NtRp3849
(dp3850
g73
(dp3851
S'_class'
p3852
S'brand'
p3853
sS'_href'
p3854
S'http://www.ningwai.net/'
p3855
ssg82
Nsg75
(lp3856
g68
(cgluon.html
B
p3857
g70
NtRp3858
(dp3859
g73
(dp3860
sg82
g3849
sg75
(lp3861
S'ningwai'
p3862
asbacgluon.html
XML_unpickle
p3863
(S's\r\x00\x00\x00&trade;&nbsp;'
tRp3864
asbasbasbasbag68
(g84
g70
NtRp3865
(dp3866
g73
(dp3867
sg82
g3390
sg75
(lp3868
g68
(g89
g70
NtRp3869
(dp3870
g73
(dp3871
g93
g94
ssg82
g3865
sg75
(lp3872
S'menu'
p3873
asbag68
(g89
g70
NtRp3874
(dp3875
g73
(dp3876
g100
g101
ssg82
g3865
sg75
(lp3877
S':'
asbag68
(g89
g70
NtRp3878
(dp3879
g73
(dp3880
sg82
g3865
sg75
(lp3881
g68
(g69
g70
NtRp3882
(dp3883
g73
(dp3884
g81
I5
ssg82
g3878
sg75
(lp3885
g68
(g77
g70
NtRp3886
(dp3887
g73
(dp3888
g81
I4
ssg82
Nsg75
(lp3889
g68
(g84
g70
NtRp3890
(dp3891
g73
(dp3892
sg82
g3886
sg75
(lp3893
g68
(g89
g70
NtRp3894
(dp3895
g73
(dp3896
sg82
g3890
sg75
(lp3897
g68
(g69
g70
NtRp3898
(dp3899
g73
(dp3900
g81
I4
ssg82
g3894
sg75
(lp3901
g68
(g77
g70
NtRp3902
(dp3903
g73
(dp3904
g81
I3
ssg82
Nsg75
(lp3905
g68
(g84
g70
NtRp3906
(dp3907
g73
(dp3908
sg82
g3902
sg75
(lp3909
g68
(g89
g70
NtRp3910
(dp3911
g73
(dp3912
sg82
g3906
sg75
(lp3913
g68
(g69
g70
NtRp3914
(dp3915
g73
(dp3916
g81
I3
ssg82
g3910
sg75
(lp3917
cgluon.languages
lazyT_unpickle
p3918
(S's\x04\x00\x00\x00Home'
tRp3919
asbasbasbag68
(g84
g70
NtRp3920
(dp3921
g73
(dp3922
sg82
g3902
sg75
(lp3923
g68
(g89
g70
NtRp3924
(dp3925
g73
(dp3926
sg82
g3920
sg75
(lp3927
g68
(g69
g70
NtRp3928
(dp3929
g73
(dp3930
g81
I3
ssg82
g3924
sg75
(lp3931
g111
asbasbasbag68
(g84
g70
NtRp3932
(dp3933
g73
(dp3934
sg82
g3902
sg75
(lp3935
g68
(g89
g70
NtRp3936
(dp3937
g73
(dp3938
sg82
g3932
sg75
(lp3939
g68
(g69
g70
NtRp3940
(dp3941
g73
(dp3942
g81
I3
ssg82
g3936
sg75
(lp3943
S'/hw4/default/index'
p3944
asbasbasbag68
(g84
g70
NtRp3945
(dp3946
g73
(dp3947
sg82
g3902
sg75
(lp3948
g68
(g89
g70
NtRp3949
(dp3950
g73
(dp3951
sg82
g3945
sg75
(lp3952
g68
(g69
g70
NtRp3953
(dp3954
g73
(dp3955
g81
I3
ssg82
g3949
sg75
(lp3956
g68
(g77
g70
NtRp3957
(dp3958
g73
(dp3959
g81
I2
ssg82
Nsg75
(lp3960
sbasbasbasbasbasbasbasbasbasbasbasbag68
(g84
g70
NtRp3961
(dp3962
g73
(dp3963
sg82
g3390
sg75
(lp3964
g68
(g89
g70
NtRp3965
(dp3966
g73
(dp3967
g93
g94
ssg82
g3961
sg75
(lp3968
S'meta'
p3969
asbag68
(g89
g70
NtRp3970
(dp3971
g73
(dp3972
g100
g101
ssg82
g3961
sg75
(lp3973
S':'
asbag68
(g89
g70
NtRp3974
(dp3975
g73
(dp3976
sg82
g3961
sg75
(lp3977
g68
(g69
g70
NtRp3978
(dp3979
g73
(dp3980
g81
I5
ssg82
g3974
sg75
(lp3981
g68
(g77
g70
NtRp3982
(dp3983
g73
(dp3984
g81
I4
ssg82
Nsg75
(lp3985
g68
(g84
g70
NtRp3986
(dp3987
g73
(dp3988
sg82
g3982
sg75
(lp3989
g68
(g89
g70
NtRp3990
(dp3991
g73
(dp3992
g93
g94
ssg82
g3986
sg75
(lp3993
S'author'
p3994
asbag68
(g89
g70
NtRp3995
(dp3996
g73
(dp3997
g100
g101
ssg82
g3986
sg75
(lp3998
S':'
asbag68
(g89
g70
NtRp3999
(dp4000
g73
(dp4001
sg82
g3986
sg75
(lp4002
g68
(g69
g70
NtRp4003
(dp4004
g73
(dp4005
g81
I4
ssg82
g3999
sg75
(lp4006
S''
asbasbasbag68
(g84
g70
NtRp4007
(dp4008
g73
(dp4009
sg82
g3982
sg75
(lp4010
g68
(g89
g70
NtRp4011
(dp4012
g73
(dp4013
g93
g94
ssg82
g4007
sg75
(lp4014
S'description'
p4015
asbag68
(g89
g70
NtRp4016
(dp4017
g73
(dp4018
g100
g101
ssg82
g4007
sg75
(lp4019
S':'
asbag68
(g89
g70
NtRp4020
(dp4021
g73
(dp4022
sg82
g4007
sg75
(lp4023
g68
(g69
g70
NtRp4024
(dp4025
g73
(dp4026
g81
I4
ssg82
g4020
sg75
(lp4027
S''
asbasbasbag68
(g84
g70
NtRp4028
(dp4029
g73
(dp4030
sg82
g3982
sg75
(lp4031
g68
(g89
g70
NtRp4032
(dp4033
g73
(dp4034
g93
g94
ssg82
g4028
sg75
(lp4035
S'generator'
p4036
asbag68
(g89
g70
NtRp4037
(dp4038
g73
(dp4039
g100
g101
ssg82
g4028
sg75
(lp4040
S':'
asbag68
(g89
g70
NtRp4041
(dp4042
g73
(dp4043
sg82
g4028
sg75
(lp4044
g68
(g69
g70
NtRp4045
(dp4046
g73
(dp4047
g81
I4
ssg82
g4041
sg75
(lp4048
S''
asbasbasbag68
(g84
g70
NtRp4049
(dp4050
g73
(dp4051
sg82
g3982
sg75
(lp4052
g68
(g89
g70
NtRp4053
(dp4054
g73
(dp4055
g93
g94
ssg82
g4049
sg75
(lp4056
S'keywords'
p4057
asbag68
(g89
g70
NtRp4058
(dp4059
g73
(dp4060
g100
g101
ssg82
g4049
sg75
(lp4061
S':'
asbag68
(g89
g70
NtRp4062
(dp4063
g73
(dp4064
sg82
g4049
sg75
(lp4065
g68
(g69
g70
NtRp4066
(dp4067
g73
(dp4068
g81
I4
ssg82
g4062
sg75
(lp4069
S''
asbasbasbasbasbasbasbag68
(g84
g70
NtRp4070
(dp4071
g73
(dp4072
sg82
g3390
sg75
(lp4073
g68
(g89
g70
NtRp4074
(dp4075
g73
(dp4076
g93
g94
ssg82
g4070
sg75
(lp4077
S'models_to_run'
p4078
asbag68
(g89
g70
NtRp4079
(dp4080
g73
(dp4081
g100
g101
ssg82
g4070
sg75
(lp4082
S':'
asbag68
(g89
g70
NtRp4083
(dp4084
g73
(dp4085
sg82
g4070
sg75
(lp4086
g68
(g69
g70
NtRp4087
(dp4088
g73
(dp4089
g81
I5
ssg82
g4083
sg75
(lp4090
g68
(g77
g70
NtRp4091
(dp4092
g73
(dp4093
g81
I4
ssg82
Nsg75
(lp4094
g68
(g84
g70
NtRp4095
(dp4096
g73
(dp4097
sg82
g4091
sg75
(lp4098
g68
(g89
g70
NtRp4099
(dp4100
g73
(dp4101
sg82
g4095
sg75
(lp4102
g68
(g69
g70
NtRp4103
(dp4104
g73
(dp4105
g81
I4
ssg82
g4099
sg75
(lp4106
S'^\\w+\\.py$'
p4107
asbasbasbag68
(g84
g70
NtRp4108
(dp4109
g73
(dp4110
sg82
g4091
sg75
(lp4111
g68
(g89
g70
NtRp4112
(dp4113
g73
(dp4114
sg82
g4108
sg75
(lp4115
g68
(g69
g70
NtRp4116
(dp4117
g73
(dp4118
g81
I4
ssg82
g4112
sg75
(lp4119
S'^teacher/\\w+\\.py$'
p4120
asbasbasbag68
(g84
g70
NtRp4121
(dp4122
g73
(dp4123
sg82
g4091
sg75
(lp4124
g68
(g89
g70
NtRp4125
(dp4126
g73
(dp4127
sg82
g4121
sg75
(lp4128
g68
(g69
g70
NtRp4129
(dp4130
g73
(dp4131
g81
I4
ssg82
g4125
sg75
(lp4132
S'^teacher/index/\\w+\\.py$'
p4133
asbasbasbasbasbasbasbag68
(g84
g70
NtRp4134
(dp4135
g73
(dp4136
sg82
g3390
sg75
(lp4137
g68
(g89
g70
NtRp4138
(dp4139
g73
(dp4140
g93
g94
ssg82
g4134
sg75
(lp4141
S'postprocessing'
p4142
asbag68
(g89
g70
NtRp4143
(dp4144
g73
(dp4145
g100
g101
ssg82
g4134
sg75
(lp4146
S':'
asbag68
(g89
g70
NtRp4147
(dp4148
g73
(dp4149
sg82
g4134
sg75
(lp4150
g68
(g69
g70
NtRp4151
(dp4152
g73
(dp4153
g81
I5
ssg82
g4147
sg75
(lp4154
g68
(g77
g70
NtRp4155
(dp4156
g73
(dp4157
g81
I4
ssg82
Nsg75
(lp4158
sbasbasbasbag68
(g84
g70
NtRp4159
(dp4160
g73
(dp4161
sg82
g3390
sg75
(lp4162
g68
(g89
g70
NtRp4163
(dp4164
g73
(dp4165
g93
g94
ssg82
g4159
sg75
(lp4166
S'session_cookie_expires'
p4167
asbag68
(g89
g70
NtRp4168
(dp4169
g73
(dp4170
g100
g101
ssg82
g4159
sg75
(lp4171
S':'
asbag68
(g89
g70
NtRp4172
(dp4173
g73
(dp4174
sg82
g4159
sg75
(lp4175
g68
(g69
g70
NtRp4176
(dp4177
g73
(dp4178
g81
I5
ssg82
g4172
sg75
(lp4179
S'None'
p4180
asbasbasbag68
(g84
g70
NtRp4181
(dp4182
g73
(dp4183
sg82
g3390
sg75
(lp4184
g68
(g89
g70
NtRp4185
(dp4186
g73
(dp4187
g93
g94
ssg82
g4181
sg75
(lp4188
S'session_data_name'
p4189
asbag68
(g89
g70
NtRp4190
(dp4191
g73
(dp4192
g100
g101
ssg82
g4181
sg75
(lp4193
S':'
asbag68
(g89
g70
NtRp4194
(dp4195
g73
(dp4196
sg82
g4181
sg75
(lp4197
g68
(g69
g70
NtRp4198
(dp4199
g73
(dp4200
g81
I5
ssg82
g4194
sg75
(lp4201
S'session_data_hw4'
p4202
asbasbasbag68
(g84
g70
NtRp4203
(dp4204
g73
(dp4205
sg82
g3390
sg75
(lp4206
g68
(g89
g70
NtRp4207
(dp4208
g73
(dp4209
g93
g94
ssg82
g4203
sg75
(lp4210
S'session_file'
p4211
asbag68
(g89
g70
NtRp4212
(dp4213
g73
(dp4214
g100
g101
ssg82
g4203
sg75
(lp4215
S':'
asbag68
(g89
g70
NtRp4216
(dp4217
g73
(dp4218
sg82
g4203
sg75
(lp4219
g68
(g69
g70
NtRp4220
(dp4221
g73
(dp4222
g81
I5
ssg82
g4216
sg75
(lp4223
S"<open file 'C:\\Python27\\web2py\\applications\\hw4\\sessions\\127.0.0.1-47db4407-5ca2-4b4f-b702-e73004465f15', mode 'rb+' at 0x05A6CD88>"
p4224
asbasbasbag68
(g84
g70
NtRp4225
(dp4226
g73
(dp4227
sg82
g3390
sg75
(lp4228
g68
(g89
g70
NtRp4229
(dp4230
g73
(dp4231
g93
g94
ssg82
g4225
sg75
(lp4232
S'session_filename'
p4233
asbag68
(g89
g70
NtRp4234
(dp4235
g73
(dp4236
g100
g101
ssg82
g4225
sg75
(lp4237
S':'
asbag68
(g89
g70
NtRp4238
(dp4239
g73
(dp4240
sg82
g4225
sg75
(lp4241
g68
(g69
g70
NtRp4242
(dp4243
g73
(dp4244
g81
I5
ssg82
g4238
sg75
(lp4245
S'C:\\Python27\\web2py\\applications\\hw4\\sessions\\127.0.0.1-47db4407-5ca2-4b4f-b702-e73004465f15'
p4246
asbasbasbag68
(g84
g70
NtRp4247
(dp4248
g73
(dp4249
sg82
g3390
sg75
(lp4250
g68
(g89
g70
NtRp4251
(dp4252
g73
(dp4253
g93
g94
ssg82
g4247
sg75
(lp4254
S'session_id'
p4255
asbag68
(g89
g70
NtRp4256
(dp4257
g73
(dp4258
g100
g101
ssg82
g4247
sg75
(lp4259
S':'
asbag68
(g89
g70
NtRp4260
(dp4261
g73
(dp4262
sg82
g4247
sg75
(lp4263
g68
(g69
g70
NtRp4264
(dp4265
g73
(dp4266
g81
I5
ssg82
g4260
sg75
(lp4267
g486
asbasbasbag68
(g84
g70
NtRp4268
(dp4269
g73
(dp4270
sg82
g3390
sg75
(lp4271
g68
(g89
g70
NtRp4272
(dp4273
g73
(dp4274
g93
g94
ssg82
g4268
sg75
(lp4275
S'session_id_name'
p4276
asbag68
(g89
g70
NtRp4277
(dp4278
g73
(dp4279
g100
g101
ssg82
g4268
sg75
(lp4280
S':'
asbag68
(g89
g70
NtRp4281
(dp4282
g73
(dp4283
sg82
g4268
sg75
(lp4284
g68
(g69
g70
NtRp4285
(dp4286
g73
(dp4287
g81
I5
ssg82
g4281
sg75
(lp4288
g3447
asbasbasbag68
(g84
g70
NtRp4289
(dp4290
g73
(dp4291
sg82
g3390
sg75
(lp4292
g68
(g89
g70
NtRp4293
(dp4294
g73
(dp4295
g93
g94
ssg82
g4289
sg75
(lp4296
S'session_locked'
p4297
asbag68
(g89
g70
NtRp4298
(dp4299
g73
(dp4300
g100
g101
ssg82
g4289
sg75
(lp4301
S':'
asbag68
(g89
g70
NtRp4302
(dp4303
g73
(dp4304
sg82
g4289
sg75
(lp4305
g68
(g69
g70
NtRp4306
(dp4307
g73
(dp4308
g81
I5
ssg82
g4302
sg75
(lp4309
g1801
asbasbasbag68
(g84
g70
NtRp4310
(dp4311
g73
(dp4312
sg82
g3390
sg75
(lp4313
g68
(g89
g70
NtRp4314
(dp4315
g73
(dp4316
g93
g94
ssg82
g4310
sg75
(lp4317
S'session_new'
p4318
asbag68
(g89
g70
NtRp4319
(dp4320
g73
(dp4321
g100
g101
ssg82
g4310
sg75
(lp4322
S':'
asbag68
(g89
g70
NtRp4323
(dp4324
g73
(dp4325
sg82
g4310
sg75
(lp4326
g68
(g69
g70
NtRp4327
(dp4328
g73
(dp4329
g81
I5
ssg82
g4323
sg75
(lp4330
g111
asbasbasbag68
(g84
g70
NtRp4331
(dp4332
g73
(dp4333
sg82
g3390
sg75
(lp4334
g68
(g89
g70
NtRp4335
(dp4336
g73
(dp4337
g93
g94
ssg82
g4331
sg75
(lp4338
S'session_storage_type'
p4339
asbag68
(g89
g70
NtRp4340
(dp4341
g73
(dp4342
g100
g101
ssg82
g4331
sg75
(lp4343
S':'
asbag68
(g89
g70
NtRp4344
(dp4345
g73
(dp4346
sg82
g4331
sg75
(lp4347
g68
(g69
g70
NtRp4348
(dp4349
g73
(dp4350
g81
I5
ssg82
g4344
sg75
(lp4351
g3253
asbasbasbag68
(g84
g70
NtRp4352
(dp4353
g73
(dp4354
sg82
g3390
sg75
(lp4355
g68
(g89
g70
NtRp4356
(dp4357
g73
(dp4358
g93
g94
ssg82
g4352
sg75
(lp4359
S'status'
p4360
asbag68
(g89
g70
NtRp4361
(dp4362
g73
(dp4363
g100
g101
ssg82
g4352
sg75
(lp4364
S':'
asbag68
(g89
g70
NtRp4365
(dp4366
g73
(dp4367
sg82
g4352
sg75
(lp4368
g68
(g69
g70
NtRp4369
(dp4370
g73
(dp4371
g81
I5
ssg82
g4365
sg75
(lp4372
S'200'
p4373
asbasbasbag68
(g84
g70
NtRp4374
(dp4375
g73
(dp4376
sg82
g3390
sg75
(lp4377
g68
(g89
g70
NtRp4378
(dp4379
g73
(dp4380
g93
g94
ssg82
g4374
sg75
(lp4381
S'subtitle'
p4382
asbag68
(g89
g70
NtRp4383
(dp4384
g73
(dp4385
g100
g101
ssg82
g4374
sg75
(lp4386
S':'
asbag68
(g89
g70
NtRp4387
(dp4388
g73
(dp4389
sg82
g4374
sg75
(lp4390
g68
(g69
g70
NtRp4391
(dp4392
g73
(dp4393
g81
I5
ssg82
g4387
sg75
(lp4394
g3918
(S't\x00\x00\x00\x00'
tRp4395
asbasbasbag68
(g84
g70
NtRp4396
(dp4397
g73
(dp4398
sg82
g3390
sg75
(lp4399
g68
(g89
g70
NtRp4400
(dp4401
g73
(dp4402
g93
g94
ssg82
g4396
sg75
(lp4403
S'title'
p4404
asbag68
(g89
g70
NtRp4405
(dp4406
g73
(dp4407
g100
g101
ssg82
g4396
sg75
(lp4408
S':'
asbag68
(g89
g70
NtRp4409
(dp4410
g73
(dp4411
sg82
g4396
sg75
(lp4412
g68
(g69
g70
NtRp4413
(dp4414
g73
(dp4415
g81
I5
ssg82
g4409
sg75
(lp4416
S'\xe5\xae\x81\xe6\xb3\xa2\xe5\xa4\x96\xe5\x9b\xbd\xe8\xaf\xad\xe5\xad\xa6\xe6\xa0\xa1\xe4\xbf\xa1\xe6\x81\xaf\xe6\x8a\x80\xe6\x9c\xaf\xe8\xaf\xbe'
p4417
asbasbasbag68
(g84
g70
NtRp4418
(dp4419
g73
(dp4420
sg82
g3390
sg75
(lp4421
g68
(g89
g70
NtRp4422
(dp4423
g73
(dp4424
g93
g94
ssg82
g4418
sg75
(lp4425
S'view'
p4426
asbag68
(g89
g70
NtRp4427
(dp4428
g73
(dp4429
g100
g101
ssg82
g4418
sg75
(lp4430
S':'
asbag68
(g89
g70
NtRp4431
(dp4432
g73
(dp4433
sg82
g4418
sg75
(lp4434
g68
(g69
g70
NtRp4435
(dp4436
g73
(dp4437
g81
I5
ssg82
g4431
sg75
(lp4438
S'teacher/index.html'
p4439
asbasbasbasbasbsS'locals'
p4440
(dp4441
g4
S"r'C:\\Python27\\web2py\\applications\\hw4\\controllers/teacher.py'"
p4442
sg6
S"'# coding: utf8\\n# \\xe5\\xb0\\x9d\\xe8\\xaf\\x95\\n@auth.requires(requires_...rm=form)\\n\\nresponse._vars=response._caller(index)\\n'"
p4443
sssS'traceback'
p4444
S'Traceback (most recent call last):\n  File "C:\\Python27\\web2py\\gluon\\restricted.py", line 211, in restricted\n    ccode = compile2(code, layer)\n  File "C:\\Python27\\web2py\\gluon\\restricted.py", line 194, in compile2\n    return compile(code.rstrip().replace(\'\\r\\n\', \'\\n\') + \'\\n\', layer, \'exec\')\n  File "C:\\Python27\\web2py\\applications\\hw4\\controllers/teacher.py", line 3\n    @auth.requires(requires_membership(\'teacher\')=True or request.client==\'127.0.0.1\', requires_login=True)\nSyntaxError: keyword can\'t be an expression\n'
p4445
s.