(dp1
S'output'
p2
S"<type 'exceptions.SyntaxError'> invalid select attribute: sortby"
p3
sS'layer'
p4
S'E:\\web\\applications\\welcome\\controllers/default.py'
p5
sS'code'
p6
S'# -*- coding: utf-8 -*-\n# this file is released under public domain and you can use without limitations\n\n#########################################################################\n## This is a samples controller\n## - index is the default action of any application\n## - user is required for authentication and authorization\n## - download is for downloading files uploaded in the db (does streaming)\n## - call exposes all registered services (none by default)\n#########################################################################\n\nfrom gluon.tools import Crud\n\ndef index():\n    """\n    example action using the internationalization operator T and flash\n    rendered by views/default/index.html or views/generic.html\n\n    if you need a simple wiki simple replace the two lines below with:\n    return auth.wiki()\n    """\n\n    message=\'\'\n    return dict(message=message)\n\n@auth.requires_login()\ndef course_list():\n    import datetime\n    now=datetime.date.today()\n    y=now.year\n    m=now.month\n    jie = auth.user.jie   \n    if int(m) in range(2,8):\n        xueqi=2\n        nianji=int(y)-2000-int(jie)+3\n\n        xuenian=str(int(y)-1-2000)\n    else:\n        xueqi=1\n        nianji=int(y)-2000-int(jie)+4\n        xuenian=str(int(y)-2000)\n    rows=db((db.keshi.xuenian==xuenian)&(db.keshi.xueqi==xueqi)&(db.keshi.nianji==nianji)&(db.keshi.showed==True)).select(\n                                                                                                  left=db.keshi.on(db.keshi.kecheng==db.course.id))\n    return dict(rows=rows)\n\n@auth.requires_login()\ndef study():\n\n    keshi_id=request.args[0]\n    record=db.keshi[keshi_id]\n    kecheng_id=record.kecheng\n    haszuoye=record.haszuoye\n    kecheng=db.course[kecheng_id]\n    title=kecheng.title\n    neirong=kecheng.neirong\n    kejian=kecheng.kejian\n    \n    \n    rows=db(db.course.id==kecheng_id).select(db.course.kejian)\n    lianxi_url=A(\'\xe7\xbb\x83\xe4\xb9\xa0\',_href=URL(\'lianxi/%s\'%keshi_id))\n    if haszuoye:\n        zuoye_url=A(\'\xe4\xbd\x9c\xe4\xb8\x9a\',_href=URL(\'zuoye/%s\'%keshi_id))\n    else:\n        zuoye_url=BR()\n    defen_url=A(\'\xe5\xbe\x97\xe5\x88\x86\',_href=URL(\'defen/%s\'%keshi_id))\n    return dict(keshi_id=keshi_id,lianxi_url=lianxi_url,zuoye_url=zuoye_url,defen_url=defen_url,\n               title=title,neirong=neirong,kejian=kejian,rows=rows)\n\n@auth.requires_login()  \ndef defen():\n    zuozhe=auth.user_id\n    keshi_id=request.args[0]\n    rows=db((db.zuoti.zuozhe==zuozhe)&(db.lianxi.keshi==keshi_id)).select(    \n                                                                       db.lianxi.bianhao,\n                                                                       db.zuoti.zuoda,\n                                                                       db.timu.daan,orderby=db.lianxi.bianhao,\n                                                                       join=db.lianxi.on(\n                                                                                         (db.lianxi.timu==db.timu.id)&\n                                                                                         (db.zuoti.lianxi==db.lianxi.id)),\n\t\t\t\t\t\t\t\t\t\t\t\t\t\t\t\t\t\tsortby=db.lianxi.bianhao\n                                                                       )\n    \n    n=0;   right=0; cj=0\n    for row in rows:\n        n=n+1\n        if row.zuoti.zuoda==row.timu.daan:\n            right=right+1\n    if n>0:\n        cj=int(right*100/n)\n    if not db.defen((db.defen.keshi==keshi_id)&(db.defen.xuesheng==zuozhe)):\n        db.defen.insert(keshi=keshi_id,xuesheng=auth.user_id,chengji=cj)\n    return dict(rows=rows,cj=cj,keshi_id=keshi_id)\n\n@auth.requires_login()\ndef zuoye():\n    zuozhe=auth.user_id\n    keshi_id=request.args[0]\n    crud=Crud(db)\n    if db.zuoye((db.zuoye.zuozhe==zuozhe)&(db.zuoye.keshi==keshi_id)):\n        db.zuoye.defen.writable=False\n        zuoye_id=db.zuoye((db.zuoye.zuozhe==zuozhe)&(db.zuoye.keshi==keshi_id)).id\n        form=crud.update(db.zuoye,zuoye_id,deletable=False,next=request.url)\n        db.zuoye.defen.writable=True\n    else:\n        db.zuoye.zuozhe.default=zuozhe\n        db.zuoye.keshi.default=keshi_id\n        db.zuoye.defen.writable=False\n        form=crud.create(db.zuoye,next=request.url)\n      #  db.zuoye.zuozhe.default=None\n        db.zuoye.keshi.default=None\n        db.zuoye.defen.writable=True\n    return dict(form=form)\n    \n@auth.requires_login()\ndef lianxi():\n    zuozhe=auth.user_id\n    keshi_id=request.args[0]\n    crud=Crud(db)\n    lianxi=db(db.lianxi.keshi==keshi_id).select(orderby=db.lianxi.bianhao)\n    values=None\n \n    form=FORM(\'\xe7\xbb\x83\xe4\xb9\xa0:\',\n                  keepvalues=True)\n    form.append(BR())\n    for l in lianxi:      \n        form.append(XML(db.timu(l.timu).wenti))\n        form.append(INPUT(_name=l.id))\n        form.append(BR())\n    form.append(INPUT(_type=\'submit\',_value=\'\xe6\x8f\x90\xe4\xba\xa4\'))\n    if form.process().accepted:\n        for (lx,zd) in form.vars.items():\n            db.zuoti.update_or_insert((db.zuoti.lianxi==lx)&(db.zuoti.zuozhe==zuozhe),\n                                      lianxi=lx,zuozhe=zuozhe,zuoda=zd)\n        redirect(URL(\'study\',args=keshi_id))\n    return dict(form=form)\n    \ndef user():\n    """\n    exposes:\n    http://..../[app]/default/user/login\n    http://..../[app]/default/user/logout\n    http://..../[app]/default/user/register\n    http://..../[app]/default/user/profile\n    http://..../[app]/default/user/retrieve_password\n    http://..../[app]/default/user/change_password\n    use @auth.requires_login()\n        @auth.requires_membership(\'group name\')\n        @auth.requires_permission(\'read\',\'table name\',record_id)\n    to decorate functions that need access control\n    """\n    return dict(form=auth())\n\ndef download():\n    """\n    allows downloading of uploaded files\n    http://..../[app]/default/download/[filename]\n    """\n    response.headers[\'Pragma\']="private"\n    response.headers[\'Cache-Control\']="private, must-revalidate"\n\n    return response.download(request, db)\n\ndef call():\n    """\n    exposes services. for example:\n    http://..../[app]/default/call/jsonrpc\n    decorate with @services.jsonrpc the functions to expose\n    supports xml, json, xmlrpc, jsonrpc, amfrpc, rss, csv\n    """\n    return service()\n\n\n@auth.requires_signature()\ndef data():\n    """\n    http://..../[app]/default/data/tables\n    http://..../[app]/default/data/create/[table]\n    http://..../[app]/default/data/read/[table]/[id]\n    http://..../[app]/default/data/update/[table]/[id]\n    http://..../[app]/default/data/delete/[table]/[id]\n    http://..../[app]/default/data/select/[table]\n    http://..../[app]/default/data/search/[table]\n    but URLs must be signed, i.e. linked with\n      A(\'table\',_href=URL(\'data/tables\',user_signature=True))\n    or with the signed load operator\n      LOAD(\'default\',\'data.load\',args=\'tables\',ajax=True,user_signature=True)\n    """\n    return dict(form=crud())\n\nresponse._vars=response._caller(defen)\n'
p7
sS'snapshot'
p8
(dp9
S'exception'
p10
(dp11
S'__getslice__'
p12
S"<method-wrapper '__getslice__' of exceptions.SyntaxError object>"
p13
sS'text'
p14
S'None'
p15
sS'__str__'
p16
S"<method-wrapper '__str__' of exceptions.SyntaxError object>"
p17
sS'__reduce__'
p18
S'<built-in method __reduce__ of exceptions.SyntaxError object>'
p19
sS'__dict__'
p20
S'{}'
p21
sS'__sizeof__'
p22
S'<built-in method __sizeof__ of exceptions.SyntaxError object>'
p23
sS'__init__'
p24
S"<method-wrapper '__init__' of exceptions.SyntaxError object>"
p25
sS'__setattr__'
p26
S"<method-wrapper '__setattr__' of exceptions.SyntaxError object>"
p27
sS'__reduce_ex__'
p28
S'<built-in method __reduce_ex__ of exceptions.SyntaxError object>'
p29
sS'__new__'
p30
S'<built-in method __new__ of type object>'
p31
sS'__format__'
p32
S'<built-in method __format__ of exceptions.SyntaxError object>'
p33
sS'__class__'
p34
S"<type 'exceptions.SyntaxError'>"
p35
sS'filename'
p36
S'None'
p37
sS'lineno'
p38
S'None'
p39
sS'msg'
p40
S"'invalid select attribute: sortby'"
p41
sS'__doc__'
p42
S"'Invalid syntax.'"
p43
sS'__getitem__'
p44
S"<method-wrapper '__getitem__' of exceptions.SyntaxError object>"
p45
sS'__setstate__'
p46
S'<built-in method __setstate__ of exceptions.SyntaxError object>'
p47
sS'__getattribute__'
p48
S"<method-wrapper '__getattribute__' of exceptions.SyntaxError object>"
p49
sS'print_file_and_line'
p50
S'None'
p51
sS'args'
p52
S"('invalid select attribute: sortby',)"
p53
sS'__subclasshook__'
p54
S'<built-in method __subclasshook__ of type object>'
p55
sS'offset'
p56
S'None'
p57
sS'__unicode__'
p58
S'<built-in method __unicode__ of exceptions.SyntaxError object>'
p59
sS'__delattr__'
p60
S"<method-wrapper '__delattr__' of exceptions.SyntaxError object>"
p61
sS'__repr__'
p62
S"<method-wrapper '__repr__' of exceptions.SyntaxError object>"
p63
sS'__hash__'
p64
S"<method-wrapper '__hash__' of exceptions.SyntaxError object>"
p65
ssS'evalue'
p66
S'invalid select attribute: sortby'
p67
sS'request'
p68
cgluon.html
XML_unpickle
p69
(S's\x89I\x00\x00<div><table><tr><td style="font-weight:bold;vertical-align:top">ajax</td><td valign="top">:</td><td><div>False</div></td></tr><tr><td style="font-weight:bold;vertical-align:top">application</td><td valign="top">:</td><td><div>welcome</div></td></tr><tr><td style="font-weight:bold;vertical-align:top">args</td><td valign="top">:</td><td><div><table><tr><td><div>6</div></td></tr></table></div></td></tr><tr><td style="font-weight:bold;vertical-align:top">body</td><td valign="top">:</td><td><div>&lt;cStringIO.StringO object at 0x05368C20&gt;</div></td></tr><tr><td style="font-weight:bold;vertical-align:top">cid</td><td valign="top">:</td><td><div>None</div></td></tr><tr><td style="font-weight:bold;vertical-align:top">client</td><td valign="top">:</td><td><div>192.168.201.49</div></td></tr><tr><td style="font-weight:bold;vertical-align:top">controller</td><td valign="top">:</td><td><div>default</div></td></tr><tr><td style="font-weight:bold;vertical-align:top">cookies</td><td valign="top">:</td><td><div><table><tr><td style="font-weight:bold;vertical-align:top">session_id_welcome</td><td valign="top">:</td><td><div>192.168.201.49-fa8e8b6f-13aa-49c6-93da-6c91a8e73f11<table><tr><td style="font-weight:bold;vertical-align:top">comment</td><td valign="top">:</td><td><div></div></td></tr><tr><td style="font-weight:bold;vertical-align:top">domain</td><td valign="top">:</td><td><div></div></td></tr><tr><td style="font-weight:bold;vertical-align:top">expires</td><td valign="top">:</td><td><div></div></td></tr><tr><td style="font-weight:bold;vertical-align:top">httponly</td><td valign="top">:</td><td><div></div></td></tr><tr><td style="font-weight:bold;vertical-align:top">max-age</td><td valign="top">:</td><td><div></div></td></tr><tr><td style="font-weight:bold;vertical-align:top">path</td><td valign="top">:</td><td><div></div></td></tr><tr><td style="font-weight:bold;vertical-align:top">secure</td><td valign="top">:</td><td><div></div></td></tr><tr><td style="font-weight:bold;vertical-align:top">version</td><td valign="top">:</td><td><div></div></td></tr></table></div></td></tr></table></div></td></tr><tr><td style="font-weight:bold;vertical-align:top">env</td><td valign="top">:</td><td><div><table><tr><td style="font-weight:bold;vertical-align:top">app_folders</td><td valign="top">:</td><td><div>set([&#x27;E:\\\\web\\\\applications\\\\welcome\\\\&#x27;, &#x27;E:\\\\web\\\\applications\\\\admin\\\\&#x27;])</div></td></tr><tr><td style="font-weight:bold;vertical-align:top">applications_parent</td><td valign="top">:</td><td><div>E:\\web</div></td></tr><tr><td style="font-weight:bold;vertical-align:top">cmd_args</td><td valign="top">:</td><td><div><table></table></div></td></tr><tr><td style="font-weight:bold;vertical-align:top">cmd_options</td><td valign="top">:</td><td><div>&lt;Values at 0x17a5d00: {&#x27;verbose&#x27;: False, &#x27;ip&#x27;: &#x27;127.0.0.1&#x27;, &#x27;with_scheduler&#x27;: False, &#x27;ips&#x27;: [&#x27;192.168.201.200&#x27;, &#x27;192.168.202.200&#x27;], &#x27;shutdown_timeout&#x27;: 5, &#x27;taskbar&#x27;: False, &#x27;with_coverage&#x27;: False, &#x27;port&#x27;: 8000, &#x27;maxthreads&#x27;: None, &#x27;softcron&#x27;: False, &#x27;server_name&#x27;: &#x27;cateacher&#x27;, &#x27;bpython&#x27;: False, &#x27;nogui&#x27;: False, &#x27;pid_filename&#x27;: &#x27;httpserver.pid&#x27;, &#x27;extcron&#x27;: False, &#x27;runcron&#x27;: False, &#x27;run_system_tests&#x27;: False, &#x27;test&#x27;: None, &#x27;folder&#x27;: &#x27;E:\\\\web&#x27;, &#x27;config&#x27;: &#x27;&#x27;, &#x27;import_models&#x27;: False, &#x27;winservice&#x27;: &#x27;&#x27;, &#x27;shell&#x27;: None, &#x27;run&#x27;: &#x27;&#x27;, &#x27;log_filename&#x27;: &#x27;httpserver.log&#x27;, &#x27;debuglevel&#x27;: 30, &#x27;args&#x27;: [&#x27;&#x27;], &#x27;socket_timeout&#x27;: 5, &#x27;ssl_ca_certificate&#x27;: None, &#x27;scheduler&#x27;: None, &#x27;profiler_filename&#x27;: None, &#x27;ssl_private_key&#x27;: &#x27;&#x27;, &#x27;scheduler_groups&#x27;: None, &#x27;password&#x27;: &#x27;&lt;ask&gt;&#x27;, &#x27;request_queue_size&#x27;: 5, &#x27;ssl_certificate&#x27;: &#x27;&#x27;, &#x27;cronjob&#x27;: False, &#x27;numthreads&#x27;: None, &#x27;quiet&#x27;: False, &#x27;interfaces&#x27;: None, &#x27;minthreads&#x27;: None, &#x27;timeout&#x27;: 10, &#x27;plain&#x27;: False, &#x27;nobanner&#x27;: False}&gt;</div></td></tr><tr><td style="font-weight:bold;vertical-align:top">db_sessions</td><td valign="top">:</td><td><div>set([])</div></td></tr><tr><td style="font-weight:bold;vertical-align:top">debugging</td><td valign="top">:</td><td><div>False</div></td></tr><tr><td style="font-weight:bold;vertical-align:top">gluon_parent</td><td valign="top">:</td><td><div>E:\\web</div></td></tr><tr><td style="font-weight:bold;vertical-align:top">http_accept</td><td valign="top">:</td><td><div>*/*</div></td></tr><tr><td style="font-weight:bold;vertical-align:top">http_accept_encoding</td><td valign="top">:</td><td><div>gzip, deflate</div></td></tr><tr><td style="font-weight:bold;vertical-align:top">http_accept_language</td><td valign="top">:</td><td><div>zh-cn</div></td></tr><tr><td style="font-weight:bold;vertical-align:top">http_connection</td><td valign="top">:</td><td><div>Keep-Alive</div></td></tr><tr><td style="font-weight:bold;vertical-align:top">http_cookie</td><td valign="top">:</td><td><div>session_id_welcome=192.168.201.49-fa8e8b6f-13aa-49c6-93da-6c91a8e73f11</div></td></tr><tr><td style="font-weight:bold;vertical-align:top">http_host</td><td valign="top">:</td><td><div>cateacher</div></td></tr><tr><td style="font-weight:bold;vertical-align:top">http_referer</td><td valign="top">:</td><td><div>http://cateacher/welcome/default/study/6</div></td></tr><tr><td style="font-weight:bold;vertical-align:top">http_user_agent</td><td valign="top">:</td><td><div>Mozilla/4.0 (compatible; MSIE 7.0; Windows NT 5.1; Trident/4.0; .NET CLR 2.0.50727; SE 2.X MetaSr 1.0)</div></td></tr><tr><td style="font-weight:bold;vertical-align:top">is_jython</td><td valign="top">:</td><td><div>False</div></td></tr><tr><td style="font-weight:bold;vertical-align:top">is_pypy</td><td valign="top">:</td><td><div>False</div></td></tr><tr><td style="font-weight:bold;vertical-align:top">local_hosts</td><td valign="top">:</td><td><div><table><tr><td><div>cateacher</div></td></tr><tr><td><div>192.168.202.200</div></td></tr><tr><td><div>192.168.201.200</div></td></tr><tr><td><div>::ffff:127.0.0.1</div></td></tr><tr><td><div>::1</div></td></tr><tr><td><div>127.0.0.1</div></td></tr></table></div></td></tr><tr><td style="font-weight:bold;vertical-align:top">path_info</td><td valign="top">:</td><td><div>/welcome/default/defen/6</div></td></tr><tr><td style="font-weight:bold;vertical-align:top">query_string</td><td valign="top">:</td><td><div></div></td></tr><tr><td style="font-weight:bold;vertical-align:top">remote_addr</td><td valign="top">:</td><td><div>192.168.201.49</div></td></tr><tr><td style="font-weight:bold;vertical-align:top">remote_port</td><td valign="top">:</td><td><div>1111</div></td></tr><tr><td style="font-weight:bold;vertical-align:top">request_method</td><td valign="top">:</td><td><div>GET</div></td></tr><tr><td style="font-weight:bold;vertical-align:top">request_uri</td><td valign="top">:</td><td><div>/welcome/default/defen/6</div></td></tr><tr><td style="font-weight:bold;vertical-align:top">script_name</td><td valign="top">:</td><td><div></div></td></tr><tr><td style="font-weight:bold;vertical-align:top">server_name</td><td valign="top">:</td><td><div>cateacher</div></td></tr><tr><td style="font-weight:bold;vertical-align:top">server_port</td><td valign="top">:</td><td><div>80</div></td></tr><tr><td style="font-weight:bold;vertical-align:top">server_protocol</td><td valign="top">:</td><td><div>HTTP/1.1</div></td></tr><tr><td style="font-weight:bold;vertical-align:top">server_software</td><td valign="top">:</td><td><div>Rocket 1.2.6</div></td></tr><tr><td style="font-weight:bold;vertical-align:top">web2py_path</td><td valign="top">:</td><td><div>E:\\web</div></td></tr><tr><td style="font-weight:bold;vertical-align:top">web2py_version</td><td valign="top">:</td><td><div>2.5.1-stable+timestamp.2013.06.06.15.39.19</div></td></tr><tr><td style="font-weight:bold;vertical-align:top">wsgi_errors</td><td valign="top">:</td><td><div>&lt;open file &#x27;&lt;stderr&gt;&#x27;, mode &#x27;w&#x27; at 0x00AF50D0&gt;</div></td></tr><tr><td style="font-weight:bold;vertical-align:top">wsgi_file_wrapper</td><td valign="top">:</td><td><div>&lt;class wsgiref.util.FileWrapper at 0x01744DF8&gt;</div></td></tr><tr><td style="font-weight:bold;vertical-align:top">wsgi_input</td><td valign="top">:</td><td><div>&lt;socket._fileobject object at 0x04FABEF0&gt;</div></td></tr><tr><td style="font-weight:bold;vertical-align:top">wsgi_multiprocess</td><td valign="top">:</td><td><div>False</div></td></tr><tr><td style="font-weight:bold;vertical-align:top">wsgi_multithread</td><td valign="top">:</td><td><div>True</div></td></tr><tr><td style="font-weight:bold;vertical-align:top">wsgi_run_once</td><td valign="top">:</td><td><div>False</div></td></tr><tr><td style="font-weight:bold;vertical-align:top">wsgi_url_scheme</td><td valign="top">:</td><td><div>http</div></td></tr><tr><td style="font-weight:bold;vertical-align:top">wsgi_version</td><td valign="top">:</td><td><div><table><tr><td><div>1</div></td></tr><tr><td><div>0</div></td></tr></table></div></td></tr></table></div></td></tr><tr><td style="font-weight:bold;vertical-align:top">extension</td><td valign="top">:</td><td><div>html</div></td></tr><tr><td style="font-weight:bold;vertical-align:top">folder</td><td valign="top">:</td><td><div>E:\\web\\applications\\welcome\\</div></td></tr><tr><td style="font-weight:bold;vertical-align:top">function</td><td valign="top">:</td><td><div>defen</div></td></tr><tr><td style="font-weight:bold;vertical-align:top">get_vars</td><td valign="top">:</td><td><div><table></table></div></td></tr><tr><td style="font-weight:bold;vertical-align:top">global_settings</td><td valign="top">:</td><td><div><table><tr><td style="font-weight:bold;vertical-align:top">app_folders</td><td valign="top">:</td><td><div>set([&#x27;E:\\\\web\\\\applications\\\\welcome\\\\&#x27;, &#x27;E:\\\\web\\\\applications\\\\admin\\\\&#x27;])</div></td></tr><tr><td style="font-weight:bold;vertical-align:top">applications_parent</td><td valign="top">:</td><td><div>E:\\web</div></td></tr><tr><td style="font-weight:bold;vertical-align:top">cmd_args</td><td valign="top">:</td><td><div><table></table></div></td></tr><tr><td style="font-weight:bold;vertical-align:top">cmd_options</td><td valign="top">:</td><td><div>&lt;Values at 0x17a5d00: {&#x27;verbose&#x27;: False, &#x27;ip&#x27;: &#x27;127.0.0.1&#x27;, &#x27;with_scheduler&#x27;: False, &#x27;ips&#x27;: [&#x27;192.168.201.200&#x27;, &#x27;192.168.202.200&#x27;], &#x27;shutdown_timeout&#x27;: 5, &#x27;taskbar&#x27;: False, &#x27;with_coverage&#x27;: False, &#x27;port&#x27;: 8000, &#x27;maxthreads&#x27;: None, &#x27;softcron&#x27;: False, &#x27;server_name&#x27;: &#x27;cateacher&#x27;, &#x27;bpython&#x27;: False, &#x27;nogui&#x27;: False, &#x27;pid_filename&#x27;: &#x27;httpserver.pid&#x27;, &#x27;extcron&#x27;: False, &#x27;runcron&#x27;: False, &#x27;run_system_tests&#x27;: False, &#x27;test&#x27;: None, &#x27;folder&#x27;: &#x27;E:\\\\web&#x27;, &#x27;config&#x27;: &#x27;&#x27;, &#x27;import_models&#x27;: False, &#x27;winservice&#x27;: &#x27;&#x27;, &#x27;shell&#x27;: None, &#x27;run&#x27;: &#x27;&#x27;, &#x27;log_filename&#x27;: &#x27;httpserver.log&#x27;, &#x27;debuglevel&#x27;: 30, &#x27;args&#x27;: [&#x27;&#x27;], &#x27;socket_timeout&#x27;: 5, &#x27;ssl_ca_certificate&#x27;: None, &#x27;scheduler&#x27;: None, &#x27;profiler_filename&#x27;: None, &#x27;ssl_private_key&#x27;: &#x27;&#x27;, &#x27;scheduler_groups&#x27;: None, &#x27;password&#x27;: &#x27;&lt;ask&gt;&#x27;, &#x27;request_queue_size&#x27;: 5, &#x27;ssl_certificate&#x27;: &#x27;&#x27;, &#x27;cronjob&#x27;: False, &#x27;numthreads&#x27;: None, &#x27;quiet&#x27;: False, &#x27;interfaces&#x27;: None, &#x27;minthreads&#x27;: None, &#x27;timeout&#x27;: 10, &#x27;plain&#x27;: False, &#x27;nobanner&#x27;: False}&gt;</div></td></tr><tr><td style="font-weight:bold;vertical-align:top">db_sessions</td><td valign="top">:</td><td><div>set([])</div></td></tr><tr><td style="font-weight:bold;vertical-align:top">debugging</td><td valign="top">:</td><td><div>False</div></td></tr><tr><td style="font-weight:bold;vertical-align:top">gluon_parent</td><td valign="top">:</td><td><div>E:\\web</div></td></tr><tr><td style="font-weight:bold;vertical-align:top">is_jython</td><td valign="top">:</td><td><div>False</div></td></tr><tr><td style="font-weight:bold;vertical-align:top">is_pypy</td><td valign="top">:</td><td><div>False</div></td></tr><tr><td style="font-weight:bold;vertical-align:top">local_hosts</td><td valign="top">:</td><td><div><table><tr><td><div>cateacher</div></td></tr><tr><td><div>192.168.202.200</div></td></tr><tr><td><div>192.168.201.200</div></td></tr><tr><td><div>::ffff:127.0.0.1</div></td></tr><tr><td><div>::1</div></td></tr><tr><td><div>127.0.0.1</div></td></tr></table></div></td></tr><tr><td style="font-weight:bold;vertical-align:top">web2py_version</td><td valign="top">:</td><td><div>2.5.1-stable+timestamp.2013.06.06.15.39.19</div></td></tr></table></div></td></tr><tr><td style="font-weight:bold;vertical-align:top">is_https</td><td valign="top">:</td><td><div>False</div></td></tr><tr><td style="font-weight:bold;vertical-align:top">is_local</td><td valign="top">:</td><td><div>False</div></td></tr><tr><td style="font-weight:bold;vertical-align:top">is_restful</td><td valign="top">:</td><td><div>False</div></td></tr><tr><td style="font-weight:bold;vertical-align:top">now</td><td valign="top">:</td><td><div>datetime.datetime(2013, 9, 17, 15, 47, 24, 640000)</div></td></tr><tr><td style="font-weight:bold;vertical-align:top">post_vars</td><td valign="top">:</td><td><div><table></table></div></td></tr><tr><td style="font-weight:bold;vertical-align:top">raw_args</td><td valign="top">:</td><td><div>6</div></td></tr><tr><td style="font-weight:bold;vertical-align:top">raw_extension</td><td valign="top">:</td><td><div>None</div></td></tr><tr><td style="font-weight:bold;vertical-align:top">url</td><td valign="top">:</td><td><div>/welcome/default/defen/6</div></td></tr><tr><td style="font-weight:bold;vertical-align:top">utcnow</td><td valign="top">:</td><td><div>datetime.datetime(2013, 9, 17, 7, 47, 24, 640000)</div></td></tr><tr><td style="font-weight:bold;vertical-align:top">uuid</td><td valign="top">:</td><td><div>welcome/192.168.201.49.2013-09-17.15-47-24.aeb11f56-c8b6-4aa1-9caa-f7ad0b0a5e27</div></td></tr><tr><td style="font-weight:bold;vertical-align:top">vars</td><td valign="top">:</td><td><div><table></table></div></td></tr><tr><td style="font-weight:bold;vertical-align:top">wsgi</td><td valign="top">:</td><td><div><table><tr><td style="font-weight:bold;vertical-align:top">environ</td><td valign="top">:</td><td><div><table><tr><td style="font-weight:bold;vertical-align:top">HTTP_ACCEPT</td><td valign="top">:</td><td><div>*/*</div></td></tr><tr><td style="font-weight:bold;vertical-align:top">HTTP_ACCEPT_ENCODING</td><td valign="top">:</td><td><div>gzip, deflate</div></td></tr><tr><td style="font-weight:bold;vertical-align:top">HTTP_ACCEPT_LANGUAGE</td><td valign="top">:</td><td><div>zh-cn</div></td></tr><tr><td style="font-weight:bold;vertical-align:top">HTTP_CONNECTION</td><td valign="top">:</td><td><div>Keep-Alive</div></td></tr><tr><td style="font-weight:bold;vertical-align:top">HTTP_COOKIE</td><td valign="top">:</td><td><div>session_id_welcome=192.168.201.49-fa8e8b6f-13aa-49c6-93da-6c91a8e73f11</div></td></tr><tr><td style="font-weight:bold;vertical-align:top">HTTP_HOST</td><td valign="top">:</td><td><div>cateacher</div></td></tr><tr><td style="font-weight:bold;vertical-align:top">HTTP_REFERER</td><td valign="top">:</td><td><div>http://cateacher/welcome/default/study/6</div></td></tr><tr><td style="font-weight:bold;vertical-align:top">HTTP_USER_AGENT</td><td valign="top">:</td><td><div>Mozilla/4.0 (compatible; MSIE 7.0; Windows NT 5.1; Trident/4.0; .NET CLR 2.0.50727; SE 2.X MetaSr 1.0)</div></td></tr><tr><td style="font-weight:bold;vertical-align:top">PATH_INFO</td><td valign="top">:</td><td><div>/welcome/default/defen/6</div></td></tr><tr><td style="font-weight:bold;vertical-align:top">QUERY_STRING</td><td valign="top">:</td><td><div></div></td></tr><tr><td style="font-weight:bold;vertical-align:top">REMOTE_ADDR</td><td valign="top">:</td><td><div>192.168.201.49</div></td></tr><tr><td style="font-weight:bold;vertical-align:top">REMOTE_PORT</td><td valign="top">:</td><td><div>1111</div></td></tr><tr><td style="font-weight:bold;vertical-align:top">REQUEST_METHOD</td><td valign="top">:</td><td><div>GET</div></td></tr><tr><td style="font-weight:bold;vertical-align:top">REQUEST_URI</td><td valign="top">:</td><td><div>/welcome/default/defen/6</div></td></tr><tr><td style="font-weight:bold;vertical-align:top">SCRIPT_NAME</td><td valign="top">:</td><td><div></div></td></tr><tr><td style="font-weight:bold;vertical-align:top">SERVER_NAME</td><td valign="top">:</td><td><div>cateacher</div></td></tr><tr><td style="font-weight:bold;vertical-align:top">SERVER_PORT</td><td valign="top">:</td><td><div>80</div></td></tr><tr><td style="font-weight:bold;vertical-align:top">SERVER_PROTOCOL</td><td valign="top">:</td><td><div>HTTP/1.1</div></td></tr><tr><td style="font-weight:bold;vertical-align:top">SERVER_SOFTWARE</td><td valign="top">:</td><td><div>Rocket 1.2.6</div></td></tr><tr><td style="font-weight:bold;vertical-align:top">wsgi.errors</td><td valign="top">:</td><td><div>&lt;open file &#x27;&lt;stderr&gt;&#x27;, mode &#x27;w&#x27; at 0x00AF50D0&gt;</div></td></tr><tr><td style="font-weight:bold;vertical-align:top">wsgi.file_wrapper</td><td valign="top">:</td><td><div>&lt;class wsgiref.util.FileWrapper at 0x01744DF8&gt;</div></td></tr><tr><td style="font-weight:bold;vertical-align:top">wsgi.input</td><td valign="top">:</td><td><div>&lt;cStringIO.StringO object at 0x05368C20&gt;</div></td></tr><tr><td style="font-weight:bold;vertical-align:top">wsgi.multiprocess</td><td valign="top">:</td><td><div>False</div></td></tr><tr><td style="font-weight:bold;vertical-align:top">wsgi.multithread</td><td valign="top">:</td><td><div>True</div></td></tr><tr><td style="font-weight:bold;vertical-align:top">wsgi.run_once</td><td valign="top">:</td><td><div>False</div></td></tr><tr><td style="font-weight:bold;vertical-align:top">wsgi.url_scheme</td><td valign="top">:</td><td><div>http</div></td></tr><tr><td style="font-weight:bold;vertical-align:top">wsgi.version</td><td valign="top">:</td><td><div>1</div></td></tr></table></div></td></tr></table></div></td></tr></table></div>'
tRp70
sS'frames'
p71
(lp72
(dp73
S'file'
p74
S'E:\\web\\gluon\\restricted.py'
p75
sS'dump'
p76
(dp77
S'environment'
p78
S"{'A': <class 'gluon.html.A'>, 'ANY_OF': <class 'gluon.validators.ANY_OF'>, 'Auth': <class 'gluon.tools.Auth'>, 'B': <class 'gluon.html.B'>, 'BEAUTIFY': <class 'gluon.html.BEAUTIFY'>, 'BODY': <class 'gluon.html.BODY'>, 'BR': <class 'gluon.html.BR'>, 'BUTTON': <class 'gluon.html.BUTTON'>, 'CAT': <class 'gluon.html.CAT'>, 'CENTER': <class 'gluon.html.CENTER'>, ...}"
p79
sS'ccode'
p80
S'<code object <module> at 05271728, file "E:\\web\\...cations\\welcome\\controllers/default.py", line 12>'
p81
ssS'lnum'
p82
I212
sS'lines'
p83
(dp84
I207
S'    try:'
p85
sI208
S'        if isinstance(code, types.CodeType):'
p86
sI209
S'            ccode = code'
p87
sI210
S'        else:'
p88
sI211
S'            ccode = compile2(code, layer)'
p89
sI212
S'        exec ccode in environment'
p90
sI213
S'    except HTTP:'
p91
sI214
S'        raise'
p92
sI215
S'    except RestrictedError:'
p93
sI216
S'        # do not encapsulate (obfuscate) the original RestrictedError'
p94
ssS'call'
p95
S"(code='# -*- coding: utf-8 -*-\\n# this file is released ...=crud())\\n\\nresponse._vars=response._caller(defen)\\n', environment={'A': <class 'gluon.html.A'>, 'ANY_OF': <class 'gluon.validators.ANY_OF'>, 'Auth': <class 'gluon.tools.Auth'>, 'B': <class 'gluon.html.B'>, 'BEAUTIFY': <class 'gluon.html.BEAUTIFY'>, 'BODY': <class 'gluon.html.BODY'>, 'BR': <class 'gluon.html.BR'>, 'BUTTON': <class 'gluon.html.BUTTON'>, 'CAT': <class 'gluon.html.CAT'>, 'CENTER': <class 'gluon.html.CENTER'>, ...}, layer=r'E:\\web\\applications\\welcome\\controllers/default.py')"
p96
sS'func'
p97
S'restricted'
p98
sa(dp99
g74
S'E:\\web\\applications\\welcome\\controllers\\default.py'
p100
sg76
(dp101
sg82
I190
sg83
(dp102
I179
S'    http://..../[app]/default/data/update/[table]/[id]'
p103
sI180
S'    http://..../[app]/default/data/delete/[table]/[id]'
p104
sI181
S'    http://..../[app]/default/data/select/[table]'
p105
sI182
S'    http://..../[app]/default/data/search/[table]'
p106
sI183
S'    but URLs must be signed, i.e. linked with'
p107
sI184
S"      A('table',_href=URL('data/tables',user_signature=True))"
p108
sI185
S'    or with the signed load operator'
p109
sI186
S"      LOAD('default','data.load',args='tables',ajax=True,user_signature=True)"
p110
sI187
S'    """'
p111
sI188
S'    return dict(form=crud())'
p112
ssg95
S'()'
p113
sg97
S'<module>'
p114
sa(dp115
g74
S'E:\\web\\gluon\\globals.py'
p116
sg76
(dp117
S'self'
p118
S'undefined'
p119
sS'f'
S'<function defen>'
p120
ssg82
I194
sg83
(dp121
I192
S"        self.delimiters = ('{{', '}}')"
p122
sI193
S'        self._vars = None'
p123
sI194
S'        self._caller = lambda f: f()'
p124
sI195
S'        self._view_environment = None'
p125
sI196
S'        self._custom_commit = None'
p126
sI197
S'        self._custom_rollback = None'
p127
sI198
S''
sI189
S'        self.menu = []             # used by the default view layout'
p128
sI190
S'        self.files = []            # used by web2py_ajax.html'
p129
sI191
S'        self.generic_patterns = []  # patterns to allow generic views'
p130
ssg95
S'(f=<function defen>)'
p131
sg97
S'<lambda>'
p132
sa(dp133
g74
S'E:\\web\\gluon\\tools.py'
p134
sg76
(dp135
S'action'
p136
S'<function defen>'
p137
sS'a'
S'()'
p138
sS'b'
g21
ssg82
I3022
sg83
(dp139
I3017
S'                    flag = condition'
p140
sI3018
S'                if not flag:'
p141
sI3019
S'                    current.session.flash = self.messages.access_denied'
p142
sI3020
S'                    return call_or_redirect('
p143
sI3021
S'                        self.settings.on_failed_authorization)'
p144
sI3022
S'                return action(*a, **b)'
p145
sI3023
S'            f.__doc__ = action.__doc__'
p146
sI3024
S'            f.__name__ = action.__name__'
p147
sI3025
S'            f.__dict__.update(action.__dict__)'
p148
sI3026
S'            return f'
p149
ssg95
S'(*a=(), **b={})'
p150
sg97
S'f'
sa(dp151
g74
S'E:\\web\\applications\\welcome\\controllers\\default.py'
p152
sg76
(dp153
S'global db'
p154
S'<DAL uri="sqlite://storage.sqlite">'
p155
sS'db.lianxi'
p156
S'<Table lianxi (id,keshi,bianhao,timu)>'
p157
sS'db.lianxi.bianhao'
p158
S'<gluon.dal.Field object>'
p159
sS'sortby'
p160
g119
ssg82
I80
sg83
(dp161
I75
S'                                                                       db.zuoti.zuoda,'
p162
sI76
S'                                                                       db.timu.daan,orderby=db.lianxi.bianhao,'
p163
sI77
S'                                                                       join=db.lianxi.on('
p164
sI78
S'                                                                                         (db.lianxi.timu==db.timu.id)&'
p165
sI79
S'                                                                                         (db.zuoti.lianxi==db.lianxi.id)),'
p166
sI80
S'\t\t\t\t\t\t\t\t\t\t\t\t\t\t\t\t\t\tsortby=db.lianxi.bianhao'
p167
sI81
S'                                                                       )'
p168
sI82
S''
sI83
S'    n=0;   right=0; cj=0'
p169
sI84
S'    for row in rows:'
p170
ssg95
S'()'
p171
sg97
S'defen'
p172
sa(dp173
g74
S'E:\\web\\gluon\\dal.py'
p174
sg76
(dp175
S'self.query'
p176
S'<Query ((zuoti.zuozhe = 96) AND (lianxi.keshi = 6))>'
p177
sS'adapter.select'
p178
S'<bound method SQLiteAdapter.select of <gluon.dal.SQLiteAdapter object>>'
p179
sS'fields'
p180
S'[<gluon.dal.Field object>, <gluon.dal.Field object>, <gluon.dal.Field object>]'
p181
sS'adapter'
p182
S'<gluon.dal.SQLiteAdapter object>'
p183
sS'attributes'
p184
S"{'join': <gluon.dal.Expression object>, 'orderby': <gluon.dal.Field object>, 'sortby': <gluon.dal.Field object>}"
p185
sS'self'
p186
S'<Set ((zuoti.zuozhe = 96) AND (lianxi.keshi = 6))>'
p187
ssg82
I9958
sg83
(dp188
I9953
S"                                    attributes.get('join',None),"
p189
sI9954
S"                                    attributes.get('left',None),"
p190
sI9955
S"                                    attributes.get('orderby',None),"
p191
sI9956
S"                                    attributes.get('groupby',None))"
p192
sI9957
S'        fields = adapter.expand_all(fields, tablenames)'
p193
sI9958
S'        return adapter.select(self.query,fields,attributes)'
p194
sI9959
S''
sI9960
S'    def nested_select(self,*fields,**attributes):'
p195
sI9961
S'        return Expression(self.db,self._select(*fields,**attributes))'
p196
sI9962
S''
ssg95
S"(self=<Set ((zuoti.zuozhe = 96) AND (lianxi.keshi = 6))>, *fields=[<gluon.dal.Field object>, <gluon.dal.Field object>, <gluon.dal.Field object>], **attributes={'join': <gluon.dal.Expression object>, 'orderby': <gluon.dal.Field object>, 'sortby': <gluon.dal.Field object>})"
p197
sg97
S'select'
p198
sa(dp199
g74
S'E:\\web\\gluon\\dal.py'
p200
sg76
(dp201
S'fields'
p202
S'[<gluon.dal.Field object>, <gluon.dal.Field object>, <gluon.dal.Field object>]'
p203
sS'self'
p204
S'<gluon.dal.SQLiteAdapter object>'
p205
sS').select'
p206
S'<bound method SQLiteAdapter.select of <gluon.dal.SQLiteAdapter object>>'
p207
sS'attributes'
p208
S"{'join': <gluon.dal.Expression object>, 'orderby': <gluon.dal.Field object>, 'sortby': <gluon.dal.Field object>}"
p209
sS'global SQLiteAdapter'
p210
S"<class 'gluon.dal.SQLiteAdapter'>"
p211
sS'query'
p212
S'<Query ((zuoti.zuozhe = 96) AND (lianxi.keshi = 6))>'
p213
sS'builtinsuper'
p214
S"<type 'super'>"
p215
ssg82
I2245
sg83
(dp216
I2240
S'        Note that the entire database, rather than one record, is locked'
p217
sI2241
S'        (it will be locked eventually anyway by the following UPDATE).'
p218
sI2242
S'        """'
p219
sI2243
S"        if attributes.get('for_update', False) and not 'cache' in attributes:"
p220
sI2244
S"            self.execute('BEGIN IMMEDIATE TRANSACTION;')"
p221
sI2245
S'        return super(SQLiteAdapter, self).select(query, fields, attributes)'
p222
sI2246
S''
sI2247
S'class SpatiaLiteAdapter(SQLiteAdapter):'
p223
sI2248
S"    drivers = ('sqlite3','sqlite2')"
p224
sI2249
S''
ssg95
S"(self=<gluon.dal.SQLiteAdapter object>, query=<Query ((zuoti.zuozhe = 96) AND (lianxi.keshi = 6))>, fields=[<gluon.dal.Field object>, <gluon.dal.Field object>, <gluon.dal.Field object>], attributes={'join': <gluon.dal.Expression object>, 'orderby': <gluon.dal.Field object>, 'sortby': <gluon.dal.Field object>})"
p225
sg97
g198
sa(dp226
g74
S'E:\\web\\gluon\\dal.py'
p227
sg76
(dp228
S'self._select'
p229
S'<bound method SQLiteAdapter._select of <gluon.dal.SQLiteAdapter object>>'
p230
sS'fields'
p231
S'[<gluon.dal.Field object>, <gluon.dal.Field object>, <gluon.dal.Field object>]'
p232
sS'self'
p233
S'<gluon.dal.SQLiteAdapter object>'
p234
sS'sql'
p235
g119
sS'query'
p236
S'<Query ((zuoti.zuozhe = 96) AND (lianxi.keshi = 6))>'
p237
sS'attributes'
p238
S"{'join': <gluon.dal.Expression object>, 'orderby': <gluon.dal.Field object>, 'sortby': <gluon.dal.Field object>}"
p239
ssg82
I1691
sg83
(dp240
I1686
S''
sI1687
S'    def select(self, query, fields, attributes):'
p241
sI1688
S'        """'
p242
sI1689
S'        Always returns a Rows object, possibly empty.'
p243
sI1690
S'        """'
p244
sI1691
S'        sql = self._select(query, fields, attributes)'
p245
sI1692
S"        cache = attributes.get('cache', None)"
p246
sI1693
S"        if cache and attributes.get('cacheable',False):"
p247
sI1694
S"            del attributes['cache']"
p248
sI1695
S'            (cache_model, time_expire) = cache'
p249
ssg95
S"(self=<gluon.dal.SQLiteAdapter object>, query=<Query ((zuoti.zuozhe = 96) AND (lianxi.keshi = 6))>, fields=[<gluon.dal.Field object>, <gluon.dal.Field object>, <gluon.dal.Field object>], attributes={'join': <gluon.dal.Expression object>, 'orderby': <gluon.dal.Field object>, 'sortby': <gluon.dal.Field object>})"
p250
sg97
g198
sa(dp251
g74
S'E:\\web\\gluon\\dal.py'
p252
sg76
(dp253
S'builtinSyntaxError'
p254
S"<type 'exceptions.SyntaxError'>"
p255
sS'key'
p256
S"'sortby'"
p257
ssg82
I1523
sg83
(dp258
I1518
S'        return new_fields'
p259
sI1519
S''
sI1520
S'    def _select(self, query, fields, attributes):'
p260
sI1521
S'        tables = self.tables'
p261
sI1522
S'        for key in set(attributes.keys())-SELECT_ARGS:'
p262
sI1523
S"            raise SyntaxError('invalid select attribute: %s' % key)"
p263
sI1524
S'        args_get = attributes.get'
p264
sI1525
S'        tablenames = tables(query)'
p265
sI1526
S'        tablenames_for_common_filters = tablenames'
p266
sI1527
S'        for field in fields:'
p267
ssg95
S"(self=<gluon.dal.SQLiteAdapter object>, query=<Query ((zuoti.zuozhe = 96) AND (lianxi.keshi = 6))>, fields=[<gluon.dal.Field object>, <gluon.dal.Field object>, <gluon.dal.Field object>], attributes={'join': <gluon.dal.Expression object>, 'orderby': <gluon.dal.Field object>, 'sortby': <gluon.dal.Field object>})"
p268
sg97
S'_select'
p269
sasS'pyver'
p270
S'Python 2.7.3: C:\\Python27\\python.exe (prefix: C:\\Python27)'
p271
sS'session'
p272
g69
(S's\xc7\x08\x00\x00<div><table><tr><td style="font-weight:bold;vertical-align:top">auth</td><td valign="top">:</td><td><div><table><tr><td style="font-weight:bold;vertical-align:top">expiration</td><td valign="top">:</td><td><div>3600</div></td></tr><tr><td style="font-weight:bold;vertical-align:top">hmac_key</td><td valign="top">:</td><td><div>3daa189b-06ae-41fb-b855-6532bcbe6184</div></td></tr><tr><td style="font-weight:bold;vertical-align:top">last_visit</td><td valign="top">:</td><td><div>datetime.datetime(2013, 9, 17, 15, 45, 11, 906000)</div></td></tr><tr><td style="font-weight:bold;vertical-align:top">remember</td><td valign="top">:</td><td><div>False</div></td></tr><tr><td style="font-weight:bold;vertical-align:top">user</td><td valign="top">:</td><td><div><table><tr><td style="font-weight:bold;vertical-align:top">banji</td><td valign="top">:</td><td><div>05</div></td></tr><tr><td style="font-weight:bold;vertical-align:top">email</td><td valign="top">:</td><td><div>lhlkj2004@163.com</div></td></tr><tr><td style="font-weight:bold;vertical-align:top">first_name</td><td valign="top">:</td><td><div>\xe7\x8e\x8b\xe6\x80\x9d\xe4\xbd\xb3</div></td></tr><tr><td style="font-weight:bold;vertical-align:top">id</td><td valign="top">:</td><td><div>96L</div></td></tr><tr><td style="font-weight:bold;vertical-align:top">jie</td><td valign="top">:</td><td><div>16</div></td></tr><tr><td style="font-weight:bold;vertical-align:top">last_name</td><td valign="top">:</td><td><div>03</div></td></tr><tr><td style="font-weight:bold;vertical-align:top">registration_id</td><td valign="top">:</td><td><div></div></td></tr><tr><td style="font-weight:bold;vertical-align:top">registration_key</td><td valign="top">:</td><td><div></div></td></tr><tr><td style="font-weight:bold;vertical-align:top">reset_password_key</td><td valign="top">:</td><td><div></div></td></tr></table></div></td></tr><tr><td style="font-weight:bold;vertical-align:top">user_groups</td><td valign="top">:</td><td><div><table><tr><td style="font-weight:bold;vertical-align:top">96</td><td valign="top">:</td><td><div>user_96</div></td></tr></table></div></td></tr></table></div></td></tr><tr><td style="font-weight:bold;vertical-align:top">flash</td><td valign="top">:</td><td><div>None</div></td></tr></table></div>'
tRp273
sS'etype'
p274
S"<type 'exceptions.SyntaxError'>"
p275
sS'date'
p276
S'Tue Sep 17 15:47:24 2013'
p277
sS'response'
p278
g69
(S'sb\x17\x00\x00<div><table><tr><td style="font-weight:bold;vertical-align:top">body</td><td valign="top">:</td><td><div>&lt;cStringIO.StringO object at 0x05368A80&gt;</div></td></tr><tr><td style="font-weight:bold;vertical-align:top">cookies</td><td valign="top">:</td><td><div><table><tr><td style="font-weight:bold;vertical-align:top">session_id_welcome</td><td valign="top">:</td><td><div>192.168.201.49-fa8e8b6f-13aa-49c6-93da-6c91a8e73f11<table><tr><td style="font-weight:bold;vertical-align:top">comment</td><td valign="top">:</td><td><div></div></td></tr><tr><td style="font-weight:bold;vertical-align:top">domain</td><td valign="top">:</td><td><div></div></td></tr><tr><td style="font-weight:bold;vertical-align:top">expires</td><td valign="top">:</td><td><div></div></td></tr><tr><td style="font-weight:bold;vertical-align:top">httponly</td><td valign="top">:</td><td><div></div></td></tr><tr><td style="font-weight:bold;vertical-align:top">max-age</td><td valign="top">:</td><td><div></div></td></tr><tr><td style="font-weight:bold;vertical-align:top">path</td><td valign="top">:</td><td><div>/</div></td></tr><tr><td style="font-weight:bold;vertical-align:top">secure</td><td valign="top">:</td><td><div></div></td></tr><tr><td style="font-weight:bold;vertical-align:top">version</td><td valign="top">:</td><td><div></div></td></tr></table></div></td></tr></table></div></td></tr><tr><td style="font-weight:bold;vertical-align:top">delimiters</td><td valign="top">:</td><td><div><table><tr><td><div>{{</div></td></tr><tr><td><div>}}</div></td></tr></table></div></td></tr><tr><td style="font-weight:bold;vertical-align:top">files</td><td valign="top">:</td><td><div><table></table></div></td></tr><tr><td style="font-weight:bold;vertical-align:top">flash</td><td valign="top">:</td><td><div></div></td></tr><tr><td style="font-weight:bold;vertical-align:top">generic_patterns</td><td valign="top">:</td><td><div><table></table></div></td></tr><tr><td style="font-weight:bold;vertical-align:top">google_analytics_id</td><td valign="top">:</td><td><div>None</div></td></tr><tr><td style="font-weight:bold;vertical-align:top">headers</td><td valign="top">:</td><td><div><table><tr><td style="font-weight:bold;vertical-align:top">X-Powered-By</td><td valign="top">:</td><td><div>web2py</div></td></tr></table></div></td></tr><tr><td style="font-weight:bold;vertical-align:top">logo</td><td valign="top">:</td><td><div><a class="brand" href="http://www.ningwai.net/"><b>ningwai</b>&trade;&nbsp;</a></div></td></tr><tr><td style="font-weight:bold;vertical-align:top">menu</td><td valign="top">:</td><td><div><table><tr><td><div><table><tr><td><div>Home</div></td></tr><tr><td><div>False</div></td></tr><tr><td><div>/welcome/default/index</div></td></tr><tr><td><div><table></table></div></td></tr></table></div></td></tr><tr><td><div><table><tr><td><div>\xe4\xbd\x9c\xe4\xb8\x9a\xe6\x8f\x90\xe4\xba\xa4\xe7\xb3\xbb\xe7\xbb\x9f</div></td></tr><tr><td><div>False</div></td></tr><tr><td><div>/welcome/default/course_list</div></td></tr><tr><td><div><table></table></div></td></tr></table></div></td></tr></table></div></td></tr><tr><td style="font-weight:bold;vertical-align:top">meta</td><td valign="top">:</td><td><div><table><tr><td style="font-weight:bold;vertical-align:top">author</td><td valign="top">:</td><td><div></div></td></tr><tr><td style="font-weight:bold;vertical-align:top">description</td><td valign="top">:</td><td><div></div></td></tr><tr><td style="font-weight:bold;vertical-align:top">generator</td><td valign="top">:</td><td><div></div></td></tr><tr><td style="font-weight:bold;vertical-align:top">keywords</td><td valign="top">:</td><td><div></div></td></tr></table></div></td></tr><tr><td style="font-weight:bold;vertical-align:top">models_to_run</td><td valign="top">:</td><td><div><table><tr><td><div>^\\w+\\.py$</div></td></tr><tr><td><div>^default/\\w+\\.py$</div></td></tr><tr><td><div>^default/defen/\\w+\\.py$</div></td></tr></table></div></td></tr><tr><td style="font-weight:bold;vertical-align:top">postprocessing</td><td valign="top">:</td><td><div><table></table></div></td></tr><tr><td style="font-weight:bold;vertical-align:top">session_cookie_expires</td><td valign="top">:</td><td><div>None</div></td></tr><tr><td style="font-weight:bold;vertical-align:top">session_data_name</td><td valign="top">:</td><td><div>session_data_welcome</div></td></tr><tr><td style="font-weight:bold;vertical-align:top">session_file</td><td valign="top">:</td><td><div>&lt;open file &#x27;E:\\web\\applications\\welcome\\sessions\\192.168.201.49-fa8e8b6f-13aa-49c6-93da-6c91a8e73f11&#x27;, mode &#x27;rb+&#x27; at 0x048C0B20&gt;</div></td></tr><tr><td style="font-weight:bold;vertical-align:top">session_filename</td><td valign="top">:</td><td><div>E:\\web\\applications\\welcome\\sessions\\192.168.201.49-fa8e8b6f-13aa-49c6-93da-6c91a8e73f11</div></td></tr><tr><td style="font-weight:bold;vertical-align:top">session_id</td><td valign="top">:</td><td><div>192.168.201.49-fa8e8b6f-13aa-49c6-93da-6c91a8e73f11</div></td></tr><tr><td style="font-weight:bold;vertical-align:top">session_id_name</td><td valign="top">:</td><td><div>session_id_welcome</div></td></tr><tr><td style="font-weight:bold;vertical-align:top">session_locked</td><td valign="top">:</td><td><div>True</div></td></tr><tr><td style="font-weight:bold;vertical-align:top">session_new</td><td valign="top">:</td><td><div>False</div></td></tr><tr><td style="font-weight:bold;vertical-align:top">session_storage_type</td><td valign="top">:</td><td><div>file</div></td></tr><tr><td style="font-weight:bold;vertical-align:top">status</td><td valign="top">:</td><td><div>200</div></td></tr><tr><td style="font-weight:bold;vertical-align:top">subtitle</td><td valign="top">:</td><td><div></div></td></tr><tr><td style="font-weight:bold;vertical-align:top">title</td><td valign="top">:</td><td><div>\xe5\xae\x81\xe6\xb3\xa2\xe5\xa4\x96\xe5\x9b\xbd\xe8\xaf\xad\xe5\xad\xa6\xe6\xa0\xa1\xe4\xbf\xa1\xe6\x81\xaf\xe6\x8a\x80\xe6\x9c\xaf\xe8\xaf\xbe</div></td></tr><tr><td style="font-weight:bold;vertical-align:top">view</td><td valign="top">:</td><td><div>default/defen.html</div></td></tr></table></div>'
tRp279
sS'locals'
p280
(dp281
S'tables'
p282
S'<bound method SQLiteAdapter.tables of <gluon.dal.SQLiteAdapter object>>'
p283
sS'fields'
p284
S'[<gluon.dal.Field object>, <gluon.dal.Field object>, <gluon.dal.Field object>]'
p285
sS'self'
p286
S'<gluon.dal.SQLiteAdapter object>'
p287
sS'key'
p288
S"'sortby'"
p289
sS'query'
p290
S'<Query ((zuoti.zuozhe = 96) AND (lianxi.keshi = 6))>'
p291
sS'attributes'
p292
S"{'join': <gluon.dal.Expression object>, 'orderby': <gluon.dal.Field object>, 'sortby': <gluon.dal.Field object>}"
p293
sssS'traceback'
p294
S'Traceback (most recent call last):\n  File "E:\\web\\gluon\\restricted.py", line 212, in restricted\n    exec ccode in environment\n  File "E:\\web\\applications\\welcome\\controllers/default.py", line 190, in <module>\n  File "E:\\web\\gluon\\globals.py", line 194, in <lambda>\n    self._caller = lambda f: f()\n  File "E:\\web\\gluon\\tools.py", line 3022, in f\n    return action(*a, **b)\n  File "E:\\web\\applications\\welcome\\controllers/default.py", line 80, in defen\n    sortby=db.lianxi.bianhao\n  File "E:\\web\\gluon\\dal.py", line 9958, in select\n    return adapter.select(self.query,fields,attributes)\n  File "E:\\web\\gluon\\dal.py", line 2245, in select\n    return super(SQLiteAdapter, self).select(query, fields, attributes)\n  File "E:\\web\\gluon\\dal.py", line 1691, in select\n    sql = self._select(query, fields, attributes)\n  File "E:\\web\\gluon\\dal.py", line 1523, in _select\n    raise SyntaxError(\'invalid select attribute: %s\' % key)\nSyntaxError: invalid select attribute: sortby\n'
p295
s.